
getting_started_sam3s_ek_sam3s4-flash.elf:     file format elf32-littlearm


Disassembly of section .text:

00400000 <_sfixed>:
  400000:	20002b04 	.word	0x20002b04
  400004:	00403fa9 	.word	0x00403fa9
  400008:	0040702d 	.word	0x0040702d
  40000c:	00407035 	.word	0x00407035
  400010:	0040703d 	.word	0x0040703d
  400014:	00407045 	.word	0x00407045
  400018:	0040704d 	.word	0x0040704d
	...
  40002c:	00407055 	.word	0x00407055
  400030:	0040705d 	.word	0x0040705d
  400034:	00000000 	.word	0x00000000
  400038:	00407065 	.word	0x00407065
  40003c:	00400199 	.word	0x00400199
  400040:	0040706d 	.word	0x0040706d
  400044:	00407075 	.word	0x00407075
  400048:	0040707d 	.word	0x0040707d
  40004c:	00407085 	.word	0x00407085
  400050:	0040708d 	.word	0x0040708d
  400054:	00407095 	.word	0x00407095
  400058:	0040709d 	.word	0x0040709d
  40005c:	00407025 	.word	0x00407025
  400060:	004070a5 	.word	0x004070a5
  400064:	004070ad 	.word	0x004070ad
  400068:	004070b5 	.word	0x004070b5
  40006c:	004032a5 	.word	0x004032a5
  400070:	004032dd 	.word	0x004032dd
  400074:	004032fd 	.word	0x004032fd
  400078:	004070bd 	.word	0x004070bd
  40007c:	004070c5 	.word	0x004070c5
  400080:	00407025 	.word	0x00407025
  400084:	00407025 	.word	0x00407025
  400088:	004070cd 	.word	0x004070cd
  40008c:	004070d5 	.word	0x004070d5
  400090:	004070dd 	.word	0x004070dd
  400094:	004070e5 	.word	0x004070e5
  400098:	004070ed 	.word	0x004070ed
  40009c:	004001a9 	.word	0x004001a9
  4000a0:	004070f5 	.word	0x004070f5
  4000a4:	004070fd 	.word	0x004070fd
  4000a8:	00407105 	.word	0x00407105
  4000ac:	0040710d 	.word	0x0040710d
  4000b0:	00407115 	.word	0x00407115
  4000b4:	0040711d 	.word	0x0040711d
  4000b8:	00407125 	.word	0x00407125
  4000bc:	0040712d 	.word	0x0040712d
  4000c0:	00407135 	.word	0x00407135
  4000c4:	0040713d 	.word	0x0040713d
  4000c8:	00406eb9 	.word	0x00406eb9
  4000cc:	00407025 	.word	0x00407025

004000d0 <deregister_tm_clones>:
  4000d0:	b508      	push	{r3, lr}
  4000d2:	f647 10a4 	movw	r0, #31140	; 0x79a4
  4000d6:	4b07      	ldr	r3, [pc, #28]	; (4000f4 <deregister_tm_clones+0x24>)
  4000d8:	f2c0 0040 	movt	r0, #64	; 0x40
  4000dc:	1a1b      	subs	r3, r3, r0
  4000de:	2b06      	cmp	r3, #6
  4000e0:	d800      	bhi.n	4000e4 <deregister_tm_clones+0x14>
  4000e2:	bd08      	pop	{r3, pc}
  4000e4:	f240 0300 	movw	r3, #0
  4000e8:	f2c0 0300 	movt	r3, #0
  4000ec:	2b00      	cmp	r3, #0
  4000ee:	d0f8      	beq.n	4000e2 <deregister_tm_clones+0x12>
  4000f0:	4798      	blx	r3
  4000f2:	e7f6      	b.n	4000e2 <deregister_tm_clones+0x12>
  4000f4:	004079a7 	.word	0x004079a7

004000f8 <register_tm_clones>:
  4000f8:	b508      	push	{r3, lr}
  4000fa:	f647 10a4 	movw	r0, #31140	; 0x79a4
  4000fe:	f647 13a4 	movw	r3, #31140	; 0x79a4
  400102:	f2c0 0040 	movt	r0, #64	; 0x40
  400106:	f2c0 0340 	movt	r3, #64	; 0x40
  40010a:	1a1b      	subs	r3, r3, r0
  40010c:	109b      	asrs	r3, r3, #2
  40010e:	eb03 73d3 	add.w	r3, r3, r3, lsr #31
  400112:	1059      	asrs	r1, r3, #1
  400114:	d100      	bne.n	400118 <register_tm_clones+0x20>
  400116:	bd08      	pop	{r3, pc}
  400118:	f240 0200 	movw	r2, #0
  40011c:	f2c0 0200 	movt	r2, #0
  400120:	2a00      	cmp	r2, #0
  400122:	d0f8      	beq.n	400116 <register_tm_clones+0x1e>
  400124:	4790      	blx	r2
  400126:	e7f6      	b.n	400116 <register_tm_clones+0x1e>

00400128 <__do_global_dtors_aux>:
  400128:	b510      	push	{r4, lr}
  40012a:	f240 5488 	movw	r4, #1416	; 0x588
  40012e:	f2c2 0400 	movt	r4, #8192	; 0x2000
  400132:	7823      	ldrb	r3, [r4, #0]
  400134:	b973      	cbnz	r3, 400154 <__do_global_dtors_aux+0x2c>
  400136:	f7ff ffcb 	bl	4000d0 <deregister_tm_clones>
  40013a:	f240 0300 	movw	r3, #0
  40013e:	f2c0 0300 	movt	r3, #0
  400142:	b12b      	cbz	r3, 400150 <__do_global_dtors_aux+0x28>
  400144:	f647 10a4 	movw	r0, #31140	; 0x79a4
  400148:	f2c0 0040 	movt	r0, #64	; 0x40
  40014c:	f3af 8000 	nop.w
  400150:	2301      	movs	r3, #1
  400152:	7023      	strb	r3, [r4, #0]
  400154:	bd10      	pop	{r4, pc}
  400156:	bf00      	nop

00400158 <frame_dummy>:
  400158:	b508      	push	{r3, lr}
  40015a:	f240 0300 	movw	r3, #0
  40015e:	f2c0 0300 	movt	r3, #0
  400162:	b14b      	cbz	r3, 400178 <frame_dummy+0x20>
  400164:	f647 10a4 	movw	r0, #31140	; 0x79a4
  400168:	f240 518c 	movw	r1, #1420	; 0x58c
  40016c:	f2c0 0040 	movt	r0, #64	; 0x40
  400170:	f2c2 0100 	movt	r1, #8192	; 0x2000
  400174:	f3af 8000 	nop.w
  400178:	f647 10a4 	movw	r0, #31140	; 0x79a4
  40017c:	f2c0 0040 	movt	r0, #64	; 0x40
  400180:	6803      	ldr	r3, [r0, #0]
  400182:	b12b      	cbz	r3, 400190 <frame_dummy+0x38>
  400184:	f240 0300 	movw	r3, #0
  400188:	f2c0 0300 	movt	r3, #0
  40018c:	b103      	cbz	r3, 400190 <frame_dummy+0x38>
  40018e:	4798      	blx	r3
  400190:	e8bd 4008 	ldmia.w	sp!, {r3, lr}
  400194:	f7ff bfb0 	b.w	4000f8 <register_tm_clones>

00400198 <SysTick_Handler>:
 *  Process System Tick Event
 *  Increments the timestamp counter.
 */
void SysTick_Handler( void )
{
    dwTimeStamp ++;
  400198:	4b02      	ldr	r3, [pc, #8]	; (4001a4 <SysTick_Handler+0xc>)
  40019a:	681a      	ldr	r2, [r3, #0]
  40019c:	3201      	adds	r2, #1
  40019e:	601a      	str	r2, [r3, #0]
  4001a0:	4770      	bx	lr
  4001a2:	bf00      	nop
  4001a4:	200005a4 	.word	0x200005a4

004001a8 <TC0_IrqHandler>:

/**
 *  Interrupt handler for TC0 interrupt. Toggles the state of LED\#2.
 */
void TC0_IrqHandler(void)
{
  4001a8:	b507      	push	{r0, r1, r2, lr}
    volatile uint32_t dummy;
    /* Clear status bit to acknowledge interrupt */
    dummy = TC0->TC_CHANNEL[ 0 ].TC_SR;
  4001aa:	4b05      	ldr	r3, [pc, #20]	; (4001c0 <TC0_IrqHandler+0x18>)

    /** Toggle LED state. */
    LED_Toggle( 2 );
  4001ac:	2002      	movs	r0, #2
 */
void TC0_IrqHandler(void)
{
    volatile uint32_t dummy;
    /* Clear status bit to acknowledge interrupt */
    dummy = TC0->TC_CHANNEL[ 0 ].TC_SR;
  4001ae:	6a1b      	ldr	r3, [r3, #32]
  4001b0:	9301      	str	r3, [sp, #4]

    /** Toggle LED state. */
    LED_Toggle( 2 );
  4001b2:	f004 f859 	bl	404268 <LED_Toggle>
    printf( "2 " );
  4001b6:	4803      	ldr	r0, [pc, #12]	; (4001c4 <TC0_IrqHandler+0x1c>)
  4001b8:	f000 f8c8 	bl	40034c <iprintf>
}
  4001bc:	bd0e      	pop	{r1, r2, r3, pc}
  4001be:	bf00      	nop
  4001c0:	40010000 	.word	0x40010000
  4001c4:	00407174 	.word	0x00407174

004001c8 <main>:
 *  \brief getting-started Application entry point.
 *
 *  \return Unused (ANSI-C compatibility).
 */
extern int main( void )
{
  4001c8:	b57f      	push	{r0, r1, r2, r3, r4, r5, r6, lr}
    /* Disable semihosting */
#    pragma import(__use_no_semihosting_swi)
#endif

    /* Disable watchdog */
    WDT_Disable( WDT ) ;
  4001ca:	4847      	ldr	r0, [pc, #284]	; (4002e8 <main+0x120>)
  4001cc:	f003 fd1c 	bl	403c08 <WDT_Disable>
    while (elapsed < delay);
}

static void _ConfigureUsart(void)
{
    PIO_Configure(pins, PIO_LISTSIZE(pins));
  4001d0:	2102      	movs	r1, #2
  4001d2:	4846      	ldr	r0, [pc, #280]	; (4002ec <main+0x124>)
  4001d4:	f003 fb08 	bl	4037e8 <PIO_Configure>
    PMC_EnablePeripheral(ID_USART);
    BASE_USART->US_IDR = 0xFFFFFFFF;
  4001d8:	4c45      	ldr	r4, [pc, #276]	; (4002f0 <main+0x128>)
    USART_Configure(BASE_USART,
  4001da:	4d46      	ldr	r5, [pc, #280]	; (4002f4 <main+0x12c>)
}

static void _ConfigureUsart(void)
{
    PIO_Configure(pins, PIO_LISTSIZE(pins));
    PMC_EnablePeripheral(ID_USART);
  4001dc:	200e      	movs	r0, #14
  4001de:	f003 fbe7 	bl	4039b0 <PMC_EnablePeripheral>
    BASE_USART->US_IDR = 0xFFFFFFFF;
  4001e2:	f04f 33ff 	mov.w	r3, #4294967295
    USART_Configure(BASE_USART,
  4001e6:	f44f 32e1 	mov.w	r2, #115200	; 0x1c200

static void _ConfigureUsart(void)
{
    PIO_Configure(pins, PIO_LISTSIZE(pins));
    PMC_EnablePeripheral(ID_USART);
    BASE_USART->US_IDR = 0xFFFFFFFF;
  4001ea:	60e3      	str	r3, [r4, #12]
    USART_Configure(BASE_USART,
  4001ec:	4620      	mov	r0, r4
  4001ee:	462b      	mov	r3, r5
  4001f0:	f44f 610c 	mov.w	r1, #2240	; 0x8c0
  4001f4:	f003 fd98 	bl	403d28 <USART_Configure>
                    USART_MODE_ASYNCHRONOUS,
                    115200,
                    BOARD_MCK);

    USART_SetTransmitterEnabled(BASE_USART, 1);
  4001f8:	4620      	mov	r0, r4
  4001fa:	2101      	movs	r1, #1
  4001fc:	f003 fddc 	bl	403db8 <USART_SetTransmitterEnabled>
    USART_SetReceiverEnabled(BASE_USART, 1);
  400200:	4620      	mov	r0, r4
  400202:	2101      	movs	r1, #1
  400204:	f003 fdf0 	bl	403de8 <USART_SetReceiverEnabled>
    /* Disable watchdog */
    WDT_Disable( WDT ) ;
   _ConfigureUsart();

    /* Output example information */
    printf( "-- Getting Started Example %s --\n\r", SOFTPACK_VERSION ) ;
  400208:	493b      	ldr	r1, [pc, #236]	; (4002f8 <main+0x130>)
  40020a:	483c      	ldr	r0, [pc, #240]	; (4002fc <main+0x134>)
  40020c:	f000 f89e 	bl	40034c <iprintf>
    printf( "-- %s\n\r", BOARD_NAME ) ;
  400210:	493b      	ldr	r1, [pc, #236]	; (400300 <main+0x138>)
  400212:	483c      	ldr	r0, [pc, #240]	; (400304 <main+0x13c>)
  400214:	f000 f89a 	bl	40034c <iprintf>
    printf( "-- Compiled: %s %s --\n\r", __DATE__, __TIME__ ) ;
  400218:	493b      	ldr	r1, [pc, #236]	; (400308 <main+0x140>)
  40021a:	4a3c      	ldr	r2, [pc, #240]	; (40030c <main+0x144>)
  40021c:	483c      	ldr	r0, [pc, #240]	; (400310 <main+0x148>)
  40021e:	f000 f895 	bl	40034c <iprintf>

    /* Configure systick for 1 ms. */
    printf( "Configure system tick to get 1ms tick period.\n\r" ) ;
  400222:	483c      	ldr	r0, [pc, #240]	; (400314 <main+0x14c>)
  400224:	f000 f892 	bl	40034c <iprintf>
 */
static __INLINE uint32_t SysTick_Config(uint32_t ticks)
{
  if (ticks > SysTick_LOAD_RELOAD_Msk)  return (1);            /* Reload value impossible */

  SysTick->LOAD  = (ticks & SysTick_LOAD_RELOAD_Msk) - 1;      /* set reload register */
  400228:	4b3b      	ldr	r3, [pc, #236]	; (400318 <main+0x150>)
  40022a:	f648 72ff 	movw	r2, #36863	; 0x8fff
  40022e:	605a      	str	r2, [r3, #4]
 * Note: The priority cannot be set for every core interrupt.
 */
static __INLINE void NVIC_SetPriority(IRQn_Type IRQn, uint32_t priority)
{
  if(IRQn < 0) {
    SCB->SHP[((uint32_t)(IRQn) & 0xF)-4] = ((priority << (8 - __NVIC_PRIO_BITS)) & 0xff); } /* set Priority for Cortex-M3 System Interrupts */
  400230:	4a3a      	ldr	r2, [pc, #232]	; (40031c <main+0x154>)
  400232:	21f0      	movs	r1, #240	; 0xf0
  400234:	f882 1023 	strb.w	r1, [r2, #35]	; 0x23
{
  if (ticks > SysTick_LOAD_RELOAD_Msk)  return (1);            /* Reload value impossible */

  SysTick->LOAD  = (ticks & SysTick_LOAD_RELOAD_Msk) - 1;      /* set reload register */
  NVIC_SetPriority (SysTick_IRQn, (1<<__NVIC_PRIO_BITS) - 1);  /* set Priority for Cortex-M0 System Interrupts */
  SysTick->VAL   = 0;                                          /* Load the SysTick Counter Value */
  400238:	2400      	movs	r4, #0
  SysTick->CTRL  = SysTick_CTRL_CLKSOURCE_Msk |
  40023a:	2207      	movs	r2, #7
{
  if (ticks > SysTick_LOAD_RELOAD_Msk)  return (1);            /* Reload value impossible */

  SysTick->LOAD  = (ticks & SysTick_LOAD_RELOAD_Msk) - 1;      /* set reload register */
  NVIC_SetPriority (SysTick_IRQn, (1<<__NVIC_PRIO_BITS) - 1);  /* set Priority for Cortex-M0 System Interrupts */
  SysTick->VAL   = 0;                                          /* Load the SysTick Counter Value */
  40023c:	609c      	str	r4, [r3, #8]
    {
        printf("-F- Systick configuration error\n\r" ) ;
    }

    /* PIO configuration for LEDs and Buttons. */
    PIO_InitializeInterrupts( IRQ_PRIOR_PIO ) ;
  40023e:	4620      	mov	r0, r4
  SysTick->CTRL  = SysTick_CTRL_CLKSOURCE_Msk |
  400240:	601a      	str	r2, [r3, #0]
  400242:	f003 f86b 	bl	40331c <PIO_InitializeInterrupts>

    printf( "Configure TC.\n\r" );
  400246:	4836      	ldr	r0, [pc, #216]	; (400320 <main+0x158>)
  400248:	f000 f880 	bl	40034c <iprintf>
{
    uint32_t div;
    uint32_t tcclks;

    /** Enable peripheral clock. */
    PMC->PMC_PCER0 = 1 << ID_TC0;
  40024c:	4b35      	ldr	r3, [pc, #212]	; (400324 <main+0x15c>)
  40024e:	f44f 0600 	mov.w	r6, #8388608	; 0x800000
  400252:	611e      	str	r6, [r3, #16]

    /** Configure TC for a 4Hz frequency and trigger on RC compare. */
    TC_FindMckDivisor( 4, BOARD_MCK, &div, &tcclks, BOARD_MCK );
  400254:	4629      	mov	r1, r5
  400256:	ab03      	add	r3, sp, #12
  400258:	9500      	str	r5, [sp, #0]
  40025a:	aa02      	add	r2, sp, #8
  40025c:	2004      	movs	r0, #4
  40025e:	f003 fc67 	bl	403b30 <TC_FindMckDivisor>
    TC_Configure( TC0, 0, tcclks | TC_CMR_CPCTRG );
  400262:	4d31      	ldr	r5, [pc, #196]	; (400328 <main+0x160>)
  400264:	9a03      	ldr	r2, [sp, #12]
  400266:	4628      	mov	r0, r5
  400268:	f442 4280 	orr.w	r2, r2, #16384	; 0x4000
  40026c:	4621      	mov	r1, r4
  40026e:	f003 fc01 	bl	403a74 <TC_Configure>
    TC0->TC_CHANNEL[ 0 ].TC_RC = ( BOARD_MCK / div ) / 4;
  400272:	9b02      	ldr	r3, [sp, #8]
  400274:	4a2d      	ldr	r2, [pc, #180]	; (40032c <main+0x164>)
  400276:	fbb2 f3f3 	udiv	r3, r2, r3
  40027a:	61eb      	str	r3, [r5, #28]
 * Enable a device specific interupt in the NVIC interrupt controller.
 * The interrupt number cannot be a negative value.
 */
static __INLINE void NVIC_EnableIRQ(IRQn_Type IRQn)
{
  NVIC->ISER[((uint32_t)(IRQn) >> 5)] = (1 << ((uint32_t)(IRQn) & 0x1F)); /* enable interrupt */
  40027c:	4b2c      	ldr	r3, [pc, #176]	; (400330 <main+0x168>)
  40027e:	601e      	str	r6, [r3, #0]

    /* Configure and enable interrupt on RC compare */
    NVIC_EnableIRQ( (IRQn_Type)ID_TC0 );
    TC0->TC_CHANNEL[ 0 ].TC_IER = TC_IER_CPCS;
  400280:	2310      	movs	r3, #16
  400282:	626b      	str	r3, [r5, #36]	; 0x24

    /** Start the counter if LED1 is enabled. */
    if ( bLed1Active ) {
  400284:	4b2b      	ldr	r3, [pc, #172]	; (400334 <main+0x16c>)
  400286:	781b      	ldrb	r3, [r3, #0]
  400288:	b11b      	cbz	r3, 400292 <main+0xca>

        TC_Start( TC0, 0 );
  40028a:	4628      	mov	r0, r5
  40028c:	4621      	mov	r1, r4
  40028e:	f003 fc25 	bl	403adc <TC_Start>
    PIO_InitializeInterrupts( IRQ_PRIOR_PIO ) ;

    printf( "Configure TC.\n\r" );
    _ConfigureTc() ;

    printf( "Configure LED PIOs.\n\r" ) ;
  400292:	4829      	ldr	r0, [pc, #164]	; (400338 <main+0x170>)
  400294:	f000 f85a 	bl	40034c <iprintf>
 *
 *  Configures LEDs \#1 and \#2 (cleared by default).
 */
static void _ConfigureLeds( void )
{
    LED_Configure( 0 ) ;
  400298:	2000      	movs	r0, #0
  40029a:	f003 ffbf 	bl	40421c <LED_Configure>
    LED_Configure( 1 ) ;
  40029e:	2001      	movs	r0, #1
  4002a0:	f003 ffbc 	bl	40421c <LED_Configure>
    LED_Configure( 2 ) ;	
  4002a4:	2002      	movs	r0, #2
  4002a6:	f003 ffb9 	bl	40421c <LED_Configure>
    _ConfigureLeds() ;

    //printf( "Configure buttons with debouncing.\n\r" ) ;
    //_ConfigureButtons() ;

    printf( "Press USRBP1 to Start/Stop the blue LED D2 blinking.\n\r" ) ;
  4002aa:	4824      	ldr	r0, [pc, #144]	; (40033c <main+0x174>)
  4002ac:	f000 f84e 	bl	40034c <iprintf>
    printf( "Press USRBP2 to Start/Stop the green LED D3 blinking.\n\r" ) ;
  4002b0:	4823      	ldr	r0, [pc, #140]	; (400340 <main+0x178>)
  4002b2:	f000 f84b 	bl	40034c <iprintf>
 *  by the SAM3's microcontrollers's system tick).
 *  \param delay  Delay to wait for, in milliseconds.
 */
static void _Wait(unsigned long delay)
{
    volatile uint32_t start = dwTimeStamp;
  4002b6:	4c23      	ldr	r4, [pc, #140]	; (400344 <main+0x17c>)
    {
        /* Wait for LED to be active */
        //while( !bLed0Active );

        /* Toggle LED state if active */
        if ( bLed0Active )
  4002b8:	4d1e      	ldr	r5, [pc, #120]	; (400334 <main+0x16c>)
  4002ba:	4626      	mov	r6, r4
  4002bc:	786b      	ldrb	r3, [r5, #1]
  4002be:	b143      	cbz	r3, 4002d2 <main+0x10a>
        {
            LED_Toggle( 0 );
  4002c0:	2000      	movs	r0, #0
  4002c2:	f003 ffd1 	bl	404268 <LED_Toggle>
            LED_Toggle( 1 );
  4002c6:	2001      	movs	r0, #1
  4002c8:	f003 ffce 	bl	404268 <LED_Toggle>
            //LED_Toggle( 2 );			
            printf( "1 " );
  4002cc:	481e      	ldr	r0, [pc, #120]	; (400348 <main+0x180>)
  4002ce:	f000 f83d 	bl	40034c <iprintf>
 *  by the SAM3's microcontrollers's system tick).
 *  \param delay  Delay to wait for, in milliseconds.
 */
static void _Wait(unsigned long delay)
{
    volatile uint32_t start = dwTimeStamp;
  4002d2:	6823      	ldr	r3, [r4, #0]
  4002d4:	9303      	str	r3, [sp, #12]
    uint32_t elapsed;
    do {
        elapsed = dwTimeStamp;
        elapsed -= start;
    }
    while (elapsed < delay);
  4002d6:	f240 13f3 	movw	r3, #499	; 0x1f3
static void _Wait(unsigned long delay)
{
    volatile uint32_t start = dwTimeStamp;
    uint32_t elapsed;
    do {
        elapsed = dwTimeStamp;
  4002da:	6831      	ldr	r1, [r6, #0]
        elapsed -= start;
  4002dc:	9a03      	ldr	r2, [sp, #12]
  4002de:	1a8a      	subs	r2, r1, r2
    }
    while (elapsed < delay);
  4002e0:	429a      	cmp	r2, r3
  4002e2:	d9fa      	bls.n	4002da <main+0x112>
  4002e4:	e7ea      	b.n	4002bc <main+0xf4>
  4002e6:	bf00      	nop
  4002e8:	400e1450 	.word	0x400e1450
  4002ec:	00407144 	.word	0x00407144
  4002f0:	40024000 	.word	0x40024000
  4002f4:	02328000 	.word	0x02328000
  4002f8:	0040719a 	.word	0x0040719a
  4002fc:	00407177 	.word	0x00407177
  400300:	004071a6 	.word	0x004071a6
  400304:	0040719e 	.word	0x0040719e
  400308:	004071c7 	.word	0x004071c7
  40030c:	004071d3 	.word	0x004071d3
  400310:	004071af 	.word	0x004071af
  400314:	004071dc 	.word	0x004071dc
  400318:	e000e010 	.word	0xe000e010
  40031c:	e000ed00 	.word	0xe000ed00
  400320:	0040720c 	.word	0x0040720c
  400324:	400e0400 	.word	0x400e0400
  400328:	40010000 	.word	0x40010000
  40032c:	008ca000 	.word	0x008ca000
  400330:	e000e100 	.word	0xe000e100
  400334:	20000000 	.word	0x20000000
  400338:	0040721c 	.word	0x0040721c
  40033c:	00407232 	.word	0x00407232
  400340:	00407269 	.word	0x00407269
  400344:	200005a4 	.word	0x200005a4
  400348:	004072a1 	.word	0x004072a1

0040034c <iprintf>:
  40034c:	b40f      	push	{r0, r1, r2, r3}
  40034e:	f240 0304 	movw	r3, #4
  400352:	f2c2 0300 	movt	r3, #8192	; 0x2000
  400356:	b510      	push	{r4, lr}
  400358:	b082      	sub	sp, #8
  40035a:	681c      	ldr	r4, [r3, #0]
  40035c:	b124      	cbz	r4, 400368 <iprintf+0x1c>
  40035e:	69a3      	ldr	r3, [r4, #24]
  400360:	b913      	cbnz	r3, 400368 <iprintf+0x1c>
  400362:	4620      	mov	r0, r4
  400364:	f001 f860 	bl	401428 <__sinit>
  400368:	4620      	mov	r0, r4
  40036a:	ac05      	add	r4, sp, #20
  40036c:	9a04      	ldr	r2, [sp, #16]
  40036e:	4623      	mov	r3, r4
  400370:	6881      	ldr	r1, [r0, #8]
  400372:	9401      	str	r4, [sp, #4]
  400374:	f000 f85a 	bl	40042c <_vfiprintf_r>
  400378:	b002      	add	sp, #8
  40037a:	e8bd 4010 	ldmia.w	sp!, {r4, lr}
  40037e:	b004      	add	sp, #16
  400380:	4770      	bx	lr
  400382:	bf00      	nop

00400384 <_iprintf_r>:
  400384:	b40e      	push	{r1, r2, r3}
  400386:	b510      	push	{r4, lr}
  400388:	4604      	mov	r4, r0
  40038a:	b083      	sub	sp, #12
  40038c:	b118      	cbz	r0, 400396 <_iprintf_r+0x12>
  40038e:	6983      	ldr	r3, [r0, #24]
  400390:	b90b      	cbnz	r3, 400396 <_iprintf_r+0x12>
  400392:	f001 f849 	bl	401428 <__sinit>
  400396:	4620      	mov	r0, r4
  400398:	ac06      	add	r4, sp, #24
  40039a:	9a05      	ldr	r2, [sp, #20]
  40039c:	4623      	mov	r3, r4
  40039e:	6881      	ldr	r1, [r0, #8]
  4003a0:	9401      	str	r4, [sp, #4]
  4003a2:	f000 f843 	bl	40042c <_vfiprintf_r>
  4003a6:	b003      	add	sp, #12
  4003a8:	e8bd 4010 	ldmia.w	sp!, {r4, lr}
  4003ac:	b003      	add	sp, #12
  4003ae:	4770      	bx	lr

004003b0 <__sprint_r>:
  4003b0:	6893      	ldr	r3, [r2, #8]
  4003b2:	e92d 47f0 	stmdb	sp!, {r4, r5, r6, r7, r8, r9, sl, lr}
  4003b6:	4691      	mov	r9, r2
  4003b8:	4607      	mov	r7, r0
  4003ba:	460e      	mov	r6, r1
  4003bc:	b373      	cbz	r3, 40041c <__sprint_r+0x6c>
  4003be:	6e4c      	ldr	r4, [r1, #100]	; 0x64
  4003c0:	f414 5f00 	tst.w	r4, #8192	; 0x2000
  4003c4:	d02e      	beq.n	400424 <__sprint_r+0x74>
  4003c6:	6812      	ldr	r2, [r2, #0]
  4003c8:	f102 0a08 	add.w	sl, r2, #8
  4003cc:	f85a 2c04 	ldr.w	r2, [sl, #-4]
  4003d0:	f85a 5c08 	ldr.w	r5, [sl, #-8]
  4003d4:	ea5f 0892 	movs.w	r8, r2, lsr #2
  4003d8:	d016      	beq.n	400408 <__sprint_r+0x58>
  4003da:	3d04      	subs	r5, #4
  4003dc:	2400      	movs	r4, #0
  4003de:	e001      	b.n	4003e4 <__sprint_r+0x34>
  4003e0:	45a0      	cmp	r8, r4
  4003e2:	d00f      	beq.n	400404 <__sprint_r+0x54>
  4003e4:	4638      	mov	r0, r7
  4003e6:	f855 1f04 	ldr.w	r1, [r5, #4]!
  4003ea:	4632      	mov	r2, r6
  4003ec:	3401      	adds	r4, #1
  4003ee:	f001 f8ad 	bl	40154c <_fputwc_r>
  4003f2:	1c43      	adds	r3, r0, #1
  4003f4:	d1f4      	bne.n	4003e0 <__sprint_r+0x30>
  4003f6:	2300      	movs	r3, #0
  4003f8:	f8c9 3008 	str.w	r3, [r9, #8]
  4003fc:	f8c9 3004 	str.w	r3, [r9, #4]
  400400:	e8bd 87f0 	ldmia.w	sp!, {r4, r5, r6, r7, r8, r9, sl, pc}
  400404:	f8d9 3008 	ldr.w	r3, [r9, #8]
  400408:	eba3 0388 	sub.w	r3, r3, r8, lsl #2
  40040c:	f10a 0a08 	add.w	sl, sl, #8
  400410:	f8c9 3008 	str.w	r3, [r9, #8]
  400414:	2b00      	cmp	r3, #0
  400416:	d1d9      	bne.n	4003cc <__sprint_r+0x1c>
  400418:	4618      	mov	r0, r3
  40041a:	e7ec      	b.n	4003f6 <__sprint_r+0x46>
  40041c:	6053      	str	r3, [r2, #4]
  40041e:	4618      	mov	r0, r3
  400420:	e8bd 87f0 	ldmia.w	sp!, {r4, r5, r6, r7, r8, r9, sl, pc}
  400424:	f001 fa44 	bl	4018b0 <__sfvwrite_r>
  400428:	e7e5      	b.n	4003f6 <__sprint_r+0x46>
  40042a:	bf00      	nop

0040042c <_vfiprintf_r>:
  40042c:	e92d 4ff0 	stmdb	sp!, {r4, r5, r6, r7, r8, r9, sl, fp, lr}
  400430:	f2ad 4dec 	subw	sp, sp, #1260	; 0x4ec
  400434:	4689      	mov	r9, r1
  400436:	4615      	mov	r5, r2
  400438:	9309      	str	r3, [sp, #36]	; 0x24
  40043a:	9007      	str	r0, [sp, #28]
  40043c:	b118      	cbz	r0, 400446 <_vfiprintf_r+0x1a>
  40043e:	6983      	ldr	r3, [r0, #24]
  400440:	2b00      	cmp	r3, #0
  400442:	f000 84cb 	beq.w	400ddc <_vfiprintf_r+0x9b0>
  400446:	f247 3334 	movw	r3, #29492	; 0x7334
  40044a:	f2c0 0340 	movt	r3, #64	; 0x40
  40044e:	4599      	cmp	r9, r3
  400450:	f000 84cd 	beq.w	400dee <_vfiprintf_r+0x9c2>
  400454:	f247 3314 	movw	r3, #29460	; 0x7314
  400458:	f2c0 0340 	movt	r3, #64	; 0x40
  40045c:	4599      	cmp	r9, r3
  40045e:	f000 85ca 	beq.w	400ff6 <_vfiprintf_r+0xbca>
  400462:	f247 23f4 	movw	r3, #29428	; 0x72f4
  400466:	f2c0 0340 	movt	r3, #64	; 0x40
  40046a:	4599      	cmp	r9, r3
  40046c:	bf04      	itt	eq
  40046e:	f8dd b01c 	ldreq.w	fp, [sp, #28]
  400472:	f8db 900c 	ldreq.w	r9, [fp, #12]
  400476:	f8b9 c00c 	ldrh.w	ip, [r9, #12]
  40047a:	f40c 5300 	and.w	r3, ip, #8192	; 0x2000
  40047e:	b21b      	sxth	r3, r3
  400480:	b94b      	cbnz	r3, 400496 <_vfiprintf_r+0x6a>
  400482:	f8d9 3064 	ldr.w	r3, [r9, #100]	; 0x64
  400486:	f44c 5c00 	orr.w	ip, ip, #8192	; 0x2000
  40048a:	f8a9 c00c 	strh.w	ip, [r9, #12]
  40048e:	f423 5300 	bic.w	r3, r3, #8192	; 0x2000
  400492:	f8c9 3064 	str.w	r3, [r9, #100]	; 0x64
  400496:	f00c 0308 	and.w	r3, ip, #8
  40049a:	b21b      	sxth	r3, r3
  40049c:	2b00      	cmp	r3, #0
  40049e:	f000 842d 	beq.w	400cfc <_vfiprintf_r+0x8d0>
  4004a2:	f8d9 3010 	ldr.w	r3, [r9, #16]
  4004a6:	2b00      	cmp	r3, #0
  4004a8:	f000 8428 	beq.w	400cfc <_vfiprintf_r+0x8d0>
  4004ac:	f00c 031a 	and.w	r3, ip, #26
  4004b0:	2b0a      	cmp	r3, #10
  4004b2:	f000 8431 	beq.w	400d18 <_vfiprintf_r+0x8ec>
  4004b6:	462e      	mov	r6, r5
  4004b8:	f10d 0a80 	add.w	sl, sp, #128	; 0x80
  4004bc:	f10d 0b7f 	add.w	fp, sp, #127	; 0x7f
  4004c0:	2300      	movs	r3, #0
  4004c2:	f8cd a00c 	str.w	sl, [sp, #12]
  4004c6:	f10d 08e8 	add.w	r8, sp, #232	; 0xe8
  4004ca:	ebcb 0a0a 	rsb	sl, fp, sl
  4004ce:	930d      	str	r3, [sp, #52]	; 0x34
  4004d0:	f8cd b008 	str.w	fp, [sp, #8]
  4004d4:	9305      	str	r3, [sp, #20]
  4004d6:	f8cd a03c 	str.w	sl, [sp, #60]	; 0x3c
  4004da:	f8cd 804c 	str.w	r8, [sp, #76]	; 0x4c
  4004de:	9315      	str	r3, [sp, #84]	; 0x54
  4004e0:	9314      	str	r3, [sp, #80]	; 0x50
  4004e2:	7833      	ldrb	r3, [r6, #0]
  4004e4:	2b25      	cmp	r3, #37	; 0x25
  4004e6:	bf18      	it	ne
  4004e8:	2b00      	cmpne	r3, #0
  4004ea:	f000 8383 	beq.w	400bf4 <_vfiprintf_r+0x7c8>
  4004ee:	1c72      	adds	r2, r6, #1
  4004f0:	4614      	mov	r4, r2
  4004f2:	3201      	adds	r2, #1
  4004f4:	7823      	ldrb	r3, [r4, #0]
  4004f6:	2b25      	cmp	r3, #37	; 0x25
  4004f8:	bf18      	it	ne
  4004fa:	2b00      	cmpne	r3, #0
  4004fc:	d1f8      	bne.n	4004f0 <_vfiprintf_r+0xc4>
  4004fe:	1ba5      	subs	r5, r4, r6
  400500:	d012      	beq.n	400528 <_vfiprintf_r+0xfc>
  400502:	9b14      	ldr	r3, [sp, #80]	; 0x50
  400504:	9a15      	ldr	r2, [sp, #84]	; 0x54
  400506:	3301      	adds	r3, #1
  400508:	f8c8 6000 	str.w	r6, [r8]
  40050c:	2b07      	cmp	r3, #7
  40050e:	f8c8 5004 	str.w	r5, [r8, #4]
  400512:	442a      	add	r2, r5
  400514:	9314      	str	r3, [sp, #80]	; 0x50
  400516:	9215      	str	r2, [sp, #84]	; 0x54
  400518:	bfd8      	it	le
  40051a:	f108 0808 	addle.w	r8, r8, #8
  40051e:	f300 843b 	bgt.w	400d98 <_vfiprintf_r+0x96c>
  400522:	9e05      	ldr	r6, [sp, #20]
  400524:	1976      	adds	r6, r6, r5
  400526:	9605      	str	r6, [sp, #20]
  400528:	7823      	ldrb	r3, [r4, #0]
  40052a:	2b00      	cmp	r3, #0
  40052c:	f000 8569 	beq.w	401002 <_vfiprintf_r+0xbd6>
  400530:	2300      	movs	r3, #0
  400532:	f88d 3047 	strb.w	r3, [sp, #71]	; 0x47
  400536:	461a      	mov	r2, r3
  400538:	7863      	ldrb	r3, [r4, #1]
  40053a:	1c66      	adds	r6, r4, #1
  40053c:	f04f 3cff 	mov.w	ip, #4294967295
  400540:	4617      	mov	r7, r2
  400542:	9208      	str	r2, [sp, #32]
  400544:	3601      	adds	r6, #1
  400546:	f1a3 0120 	sub.w	r1, r3, #32
  40054a:	2958      	cmp	r1, #88	; 0x58
  40054c:	f200 820a 	bhi.w	400964 <_vfiprintf_r+0x538>
  400550:	e8df f011 	tbh	[pc, r1, lsl #1]
  400554:	02080202 	.word	0x02080202
  400558:	01fe0208 	.word	0x01fe0208
  40055c:	02080208 	.word	0x02080208
  400560:	02080208 	.word	0x02080208
  400564:	02080208 	.word	0x02080208
  400568:	021700e1 	.word	0x021700e1
  40056c:	00ef0208 	.word	0x00ef0208
  400570:	0208021a 	.word	0x0208021a
  400574:	0239024a 	.word	0x0239024a
  400578:	02390239 	.word	0x02390239
  40057c:	02390239 	.word	0x02390239
  400580:	02390239 	.word	0x02390239
  400584:	02390239 	.word	0x02390239
  400588:	02080208 	.word	0x02080208
  40058c:	02080208 	.word	0x02080208
  400590:	02080208 	.word	0x02080208
  400594:	02080208 	.word	0x02080208
  400598:	02080208 	.word	0x02080208
  40059c:	02080059 	.word	0x02080059
  4005a0:	02080208 	.word	0x02080208
  4005a4:	02080208 	.word	0x02080208
  4005a8:	02080208 	.word	0x02080208
  4005ac:	02080208 	.word	0x02080208
  4005b0:	00d50208 	.word	0x00d50208
  4005b4:	02080208 	.word	0x02080208
  4005b8:	02080208 	.word	0x02080208
  4005bc:	00b90208 	.word	0x00b90208
  4005c0:	02080208 	.word	0x02080208
  4005c4:	020801a0 	.word	0x020801a0
  4005c8:	02080208 	.word	0x02080208
  4005cc:	02080208 	.word	0x02080208
  4005d0:	02080208 	.word	0x02080208
  4005d4:	02080208 	.word	0x02080208
  4005d8:	01420208 	.word	0x01420208
  4005dc:	0208005b 	.word	0x0208005b
  4005e0:	02080208 	.word	0x02080208
  4005e4:	005b01c8 	.word	0x005b01c8
  4005e8:	02080208 	.word	0x02080208
  4005ec:	020801bb 	.word	0x020801bb
  4005f0:	00d701cc 	.word	0x00d701cc
  4005f4:	01df01e3 	.word	0x01df01e3
  4005f8:	01150208 	.word	0x01150208
  4005fc:	00bb0208 	.word	0x00bb0208
  400600:	02080208 	.word	0x02080208
  400604:	00f3      	.short	0x00f3
  400606:	f047 0710 	orr.w	r7, r7, #16
  40060a:	f88d 2047 	strb.w	r2, [sp, #71]	; 0x47
  40060e:	06ba      	lsls	r2, r7, #26
  400610:	f140 845a 	bpl.w	400ec8 <_vfiprintf_r+0xa9c>
  400614:	f8dd a024 	ldr.w	sl, [sp, #36]	; 0x24
  400618:	f10a 0307 	add.w	r3, sl, #7
  40061c:	f023 0307 	bic.w	r3, r3, #7
  400620:	f103 0b08 	add.w	fp, r3, #8
  400624:	f8cd b024 	str.w	fp, [sp, #36]	; 0x24
  400628:	e9d3 2300 	ldrd	r2, r3, [r3]
  40062c:	4614      	mov	r4, r2
  40062e:	461d      	mov	r5, r3
  400630:	2a00      	cmp	r2, #0
  400632:	f173 0b00 	sbcs.w	fp, r3, #0
  400636:	f2c0 84b2 	blt.w	400f9e <_vfiprintf_r+0xb72>
  40063a:	ea54 0005 	orrs.w	r0, r4, r5
  40063e:	f89d b047 	ldrb.w	fp, [sp, #71]	; 0x47
  400642:	bf0c      	ite	eq
  400644:	2100      	moveq	r1, #0
  400646:	2101      	movne	r1, #1
  400648:	2201      	movs	r2, #1
  40064a:	f1bc 0f00 	cmp.w	ip, #0
  40064e:	bfa8      	it	ge
  400650:	f027 0780 	bicge.w	r7, r7, #128	; 0x80
  400654:	f1bc 0f00 	cmp.w	ip, #0
  400658:	bf0c      	ite	eq
  40065a:	460b      	moveq	r3, r1
  40065c:	f041 0301 	orrne.w	r3, r1, #1
  400660:	2b00      	cmp	r3, #0
  400662:	f000 82c9 	beq.w	400bf8 <_vfiprintf_r+0x7cc>
  400666:	2a01      	cmp	r2, #1
  400668:	f000 83eb 	beq.w	400e42 <_vfiprintf_r+0xa16>
  40066c:	2a02      	cmp	r2, #2
  40066e:	f000 83c3 	beq.w	400df8 <_vfiprintf_r+0x9cc>
  400672:	f10d 007f 	add.w	r0, sp, #127	; 0x7f
  400676:	f8cd b010 	str.w	fp, [sp, #16]
  40067a:	08e1      	lsrs	r1, r4, #3
  40067c:	f04f 0a07 	mov.w	sl, #7
  400680:	ea04 020a 	and.w	r2, r4, sl
  400684:	ea41 7145 	orr.w	r1, r1, r5, lsl #29
  400688:	ea4f 0ad5 	mov.w	sl, r5, lsr #3
  40068c:	460c      	mov	r4, r1
  40068e:	4655      	mov	r5, sl
  400690:	4603      	mov	r3, r0
  400692:	3230      	adds	r2, #48	; 0x30
  400694:	3801      	subs	r0, #1
  400696:	ea54 0b05 	orrs.w	fp, r4, r5
  40069a:	b2d2      	uxtb	r2, r2
  40069c:	701a      	strb	r2, [r3, #0]
  40069e:	d1ec      	bne.n	40067a <_vfiprintf_r+0x24e>
  4006a0:	07fd      	lsls	r5, r7, #31
  4006a2:	930b      	str	r3, [sp, #44]	; 0x2c
  4006a4:	f8dd b010 	ldr.w	fp, [sp, #16]
  4006a8:	f140 8447 	bpl.w	400f3a <_vfiprintf_r+0xb0e>
  4006ac:	2a30      	cmp	r2, #48	; 0x30
  4006ae:	f000 83ec 	beq.w	400e8a <_vfiprintf_r+0xa5e>
  4006b2:	f8dd a00c 	ldr.w	sl, [sp, #12]
  4006b6:	2230      	movs	r2, #48	; 0x30
  4006b8:	900b      	str	r0, [sp, #44]	; 0x2c
  4006ba:	f803 2c01 	strb.w	r2, [r3, #-1]
  4006be:	ebc0 000a 	rsb	r0, r0, sl
  4006c2:	9004      	str	r0, [sp, #16]
  4006c4:	e2a5      	b.n	400c12 <_vfiprintf_r+0x7e6>
  4006c6:	f047 0710 	orr.w	r7, r7, #16
  4006ca:	06ba      	lsls	r2, r7, #26
  4006cc:	f140 840d 	bpl.w	400eea <_vfiprintf_r+0xabe>
  4006d0:	f8dd a024 	ldr.w	sl, [sp, #36]	; 0x24
  4006d4:	2201      	movs	r2, #1
  4006d6:	f10a 0307 	add.w	r3, sl, #7
  4006da:	f023 0307 	bic.w	r3, r3, #7
  4006de:	f103 0b08 	add.w	fp, r3, #8
  4006e2:	f8cd b024 	str.w	fp, [sp, #36]	; 0x24
  4006e6:	e9d3 4500 	ldrd	r4, r5, [r3]
  4006ea:	ea54 0005 	orrs.w	r0, r4, r5
  4006ee:	bf0c      	ite	eq
  4006f0:	2100      	moveq	r1, #0
  4006f2:	2101      	movne	r1, #1
  4006f4:	f04f 0b00 	mov.w	fp, #0
  4006f8:	f88d b047 	strb.w	fp, [sp, #71]	; 0x47
  4006fc:	e7a5      	b.n	40064a <_vfiprintf_r+0x21e>
  4006fe:	f047 0710 	orr.w	r7, r7, #16
  400702:	f017 0220 	ands.w	r2, r7, #32
  400706:	f000 83c7 	beq.w	400e98 <_vfiprintf_r+0xa6c>
  40070a:	f8dd a024 	ldr.w	sl, [sp, #36]	; 0x24
  40070e:	2200      	movs	r2, #0
  400710:	f10a 0307 	add.w	r3, sl, #7
  400714:	e7e1      	b.n	4006da <_vfiprintf_r+0x2ae>
  400716:	9809      	ldr	r0, [sp, #36]	; 0x24
  400718:	f8dd a024 	ldr.w	sl, [sp, #36]	; 0x24
  40071c:	6800      	ldr	r0, [r0, #0]
  40071e:	f10a 0104 	add.w	r1, sl, #4
  400722:	2800      	cmp	r0, #0
  400724:	9008      	str	r0, [sp, #32]
  400726:	f280 83fb 	bge.w	400f20 <_vfiprintf_r+0xaf4>
  40072a:	9808      	ldr	r0, [sp, #32]
  40072c:	9109      	str	r1, [sp, #36]	; 0x24
  40072e:	4240      	negs	r0, r0
  400730:	9008      	str	r0, [sp, #32]
  400732:	f047 0704 	orr.w	r7, r7, #4
  400736:	7833      	ldrb	r3, [r6, #0]
  400738:	e704      	b.n	400544 <_vfiprintf_r+0x118>
  40073a:	06bc      	lsls	r4, r7, #26
  40073c:	f247 2bd8 	movw	fp, #29400	; 0x72d8
  400740:	f2c0 0b40 	movt	fp, #64	; 0x40
  400744:	f88d 2047 	strb.w	r2, [sp, #71]	; 0x47
  400748:	f8cd b034 	str.w	fp, [sp, #52]	; 0x34
  40074c:	f140 80ad 	bpl.w	4008aa <_vfiprintf_r+0x47e>
  400750:	f8dd a024 	ldr.w	sl, [sp, #36]	; 0x24
  400754:	f10a 0207 	add.w	r2, sl, #7
  400758:	f022 0207 	bic.w	r2, r2, #7
  40075c:	f102 0b08 	add.w	fp, r2, #8
  400760:	f8cd b024 	str.w	fp, [sp, #36]	; 0x24
  400764:	e9d2 4500 	ldrd	r4, r5, [r2]
  400768:	07fa      	lsls	r2, r7, #31
  40076a:	f100 83c8 	bmi.w	400efe <_vfiprintf_r+0xad2>
  40076e:	ea54 0b05 	orrs.w	fp, r4, r5
  400772:	f04f 0202 	mov.w	r2, #2
  400776:	bf0c      	ite	eq
  400778:	2100      	moveq	r1, #0
  40077a:	2101      	movne	r1, #1
  40077c:	e7ba      	b.n	4006f4 <_vfiprintf_r+0x2c8>
  40077e:	9b09      	ldr	r3, [sp, #36]	; 0x24
  400780:	2400      	movs	r4, #0
  400782:	f8dd b024 	ldr.w	fp, [sp, #36]	; 0x24
  400786:	f88d 4047 	strb.w	r4, [sp, #71]	; 0x47
  40078a:	681b      	ldr	r3, [r3, #0]
  40078c:	f10b 0a04 	add.w	sl, fp, #4
  400790:	930b      	str	r3, [sp, #44]	; 0x2c
  400792:	2b00      	cmp	r3, #0
  400794:	f000 845c 	beq.w	401050 <_vfiprintf_r+0xc24>
  400798:	f1bc 0f00 	cmp.w	ip, #0
  40079c:	980b      	ldr	r0, [sp, #44]	; 0x2c
  40079e:	f2c0 844e 	blt.w	40103e <_vfiprintf_r+0xc12>
  4007a2:	4662      	mov	r2, ip
  4007a4:	4621      	mov	r1, r4
  4007a6:	f8cd c004 	str.w	ip, [sp, #4]
  4007aa:	f001 fdf1 	bl	402390 <memchr>
  4007ae:	f8dd c004 	ldr.w	ip, [sp, #4]
  4007b2:	2800      	cmp	r0, #0
  4007b4:	f000 845e 	beq.w	401074 <_vfiprintf_r+0xc48>
  4007b8:	9b0b      	ldr	r3, [sp, #44]	; 0x2c
  4007ba:	f89d b047 	ldrb.w	fp, [sp, #71]	; 0x47
  4007be:	1ac0      	subs	r0, r0, r3
  4007c0:	f8cd a024 	str.w	sl, [sp, #36]	; 0x24
  4007c4:	4560      	cmp	r0, ip
  4007c6:	9004      	str	r0, [sp, #16]
  4007c8:	bfc4      	itt	gt
  4007ca:	9406      	strgt	r4, [sp, #24]
  4007cc:	f8cd c010 	strgt.w	ip, [sp, #16]
  4007d0:	f300 8221 	bgt.w	400c16 <_vfiprintf_r+0x7ea>
  4007d4:	9406      	str	r4, [sp, #24]
  4007d6:	e21e      	b.n	400c16 <_vfiprintf_r+0x7ea>
  4007d8:	9b09      	ldr	r3, [sp, #36]	; 0x24
  4007da:	2501      	movs	r5, #1
  4007dc:	f8dd b024 	ldr.w	fp, [sp, #36]	; 0x24
  4007e0:	2200      	movs	r2, #0
  4007e2:	a816      	add	r0, sp, #88	; 0x58
  4007e4:	f88d 2047 	strb.w	r2, [sp, #71]	; 0x47
  4007e8:	681b      	ldr	r3, [r3, #0]
  4007ea:	f10b 0b04 	add.w	fp, fp, #4
  4007ee:	9504      	str	r5, [sp, #16]
  4007f0:	f8cd b024 	str.w	fp, [sp, #36]	; 0x24
  4007f4:	900b      	str	r0, [sp, #44]	; 0x2c
  4007f6:	f88d 3058 	strb.w	r3, [sp, #88]	; 0x58
  4007fa:	2300      	movs	r3, #0
  4007fc:	9306      	str	r3, [sp, #24]
  4007fe:	f017 0302 	ands.w	r3, r7, #2
  400802:	930a      	str	r3, [sp, #40]	; 0x28
  400804:	bf18      	it	ne
  400806:	3502      	addne	r5, #2
  400808:	f017 0a84 	ands.w	sl, r7, #132	; 0x84
  40080c:	f8cd a030 	str.w	sl, [sp, #48]	; 0x30
  400810:	f040 810a 	bne.w	400a28 <_vfiprintf_r+0x5fc>
  400814:	9808      	ldr	r0, [sp, #32]
  400816:	1b44      	subs	r4, r0, r5
  400818:	2c00      	cmp	r4, #0
  40081a:	f340 8105 	ble.w	400a28 <_vfiprintf_r+0x5fc>
  40081e:	2c10      	cmp	r4, #16
  400820:	f247 2ba4 	movw	fp, #29348	; 0x72a4
  400824:	bfd8      	it	le
  400826:	f2c0 0b40 	movtle	fp, #64	; 0x40
  40082a:	f340 80e4 	ble.w	4009f6 <_vfiprintf_r+0x5ca>
  40082e:	f2c0 0b40 	movt	fp, #64	; 0x40
  400832:	950e      	str	r5, [sp, #56]	; 0x38
  400834:	f04f 0a10 	mov.w	sl, #16
  400838:	465d      	mov	r5, fp
  40083a:	46a3      	mov	fp, r4
  40083c:	9c07      	ldr	r4, [sp, #28]
  40083e:	e005      	b.n	40084c <_vfiprintf_r+0x420>
  400840:	f1ab 0b10 	sub.w	fp, fp, #16
  400844:	f1bb 0f10 	cmp.w	fp, #16
  400848:	f340 80d2 	ble.w	4009f0 <_vfiprintf_r+0x5c4>
  40084c:	9b14      	ldr	r3, [sp, #80]	; 0x50
  40084e:	f108 0808 	add.w	r8, r8, #8
  400852:	9a15      	ldr	r2, [sp, #84]	; 0x54
  400854:	3301      	adds	r3, #1
  400856:	e908 0420 	stmdb	r8, {r5, sl}
  40085a:	3210      	adds	r2, #16
  40085c:	2b07      	cmp	r3, #7
  40085e:	9314      	str	r3, [sp, #80]	; 0x50
  400860:	9215      	str	r2, [sp, #84]	; 0x54
  400862:	dded      	ble.n	400840 <_vfiprintf_r+0x414>
  400864:	4620      	mov	r0, r4
  400866:	4649      	mov	r1, r9
  400868:	aa13      	add	r2, sp, #76	; 0x4c
  40086a:	f10d 08e8 	add.w	r8, sp, #232	; 0xe8
  40086e:	f7ff fd9f 	bl	4003b0 <__sprint_r>
  400872:	2800      	cmp	r0, #0
  400874:	d0e4      	beq.n	400840 <_vfiprintf_r+0x414>
  400876:	f8b9 300c 	ldrh.w	r3, [r9, #12]
  40087a:	f003 0340 	and.w	r3, r3, #64	; 0x40
  40087e:	b21b      	sxth	r3, r3
  400880:	b113      	cbz	r3, 400888 <_vfiprintf_r+0x45c>
  400882:	f04f 36ff 	mov.w	r6, #4294967295
  400886:	9605      	str	r6, [sp, #20]
  400888:	9805      	ldr	r0, [sp, #20]
  40088a:	b03b      	add	sp, #236	; 0xec
  40088c:	f50d 6d80 	add.w	sp, sp, #1024	; 0x400
  400890:	e8bd 8ff0 	ldmia.w	sp!, {r4, r5, r6, r7, r8, r9, sl, fp, pc}
  400894:	06bc      	lsls	r4, r7, #26
  400896:	f247 2bc4 	movw	fp, #29380	; 0x72c4
  40089a:	f2c0 0b40 	movt	fp, #64	; 0x40
  40089e:	f88d 2047 	strb.w	r2, [sp, #71]	; 0x47
  4008a2:	f8cd b034 	str.w	fp, [sp, #52]	; 0x34
  4008a6:	f53f af53 	bmi.w	400750 <_vfiprintf_r+0x324>
  4008aa:	06f8      	lsls	r0, r7, #27
  4008ac:	f100 834b 	bmi.w	400f46 <_vfiprintf_r+0xb1a>
  4008b0:	0679      	lsls	r1, r7, #25
  4008b2:	f140 8348 	bpl.w	400f46 <_vfiprintf_r+0xb1a>
  4008b6:	f8dd b024 	ldr.w	fp, [sp, #36]	; 0x24
  4008ba:	2500      	movs	r5, #0
  4008bc:	f10b 0b04 	add.w	fp, fp, #4
  4008c0:	f83b 4c04 	ldrh.w	r4, [fp, #-4]
  4008c4:	f8cd b024 	str.w	fp, [sp, #36]	; 0x24
  4008c8:	e74e      	b.n	400768 <_vfiprintf_r+0x33c>
  4008ca:	7833      	ldrb	r3, [r6, #0]
  4008cc:	4631      	mov	r1, r6
  4008ce:	2b6c      	cmp	r3, #108	; 0x6c
  4008d0:	bf18      	it	ne
  4008d2:	f047 0710 	orrne.w	r7, r7, #16
  4008d6:	f47f ae35 	bne.w	400544 <_vfiprintf_r+0x118>
  4008da:	3601      	adds	r6, #1
  4008dc:	f047 0720 	orr.w	r7, r7, #32
  4008e0:	784b      	ldrb	r3, [r1, #1]
  4008e2:	e62f      	b.n	400544 <_vfiprintf_r+0x118>
  4008e4:	f047 0740 	orr.w	r7, r7, #64	; 0x40
  4008e8:	7833      	ldrb	r3, [r6, #0]
  4008ea:	e62b      	b.n	400544 <_vfiprintf_r+0x118>
  4008ec:	06bc      	lsls	r4, r7, #26
  4008ee:	f88d 2047 	strb.w	r2, [sp, #71]	; 0x47
  4008f2:	f100 8372 	bmi.w	400fda <_vfiprintf_r+0xbae>
  4008f6:	06f8      	lsls	r0, r7, #27
  4008f8:	f140 838d 	bpl.w	401016 <_vfiprintf_r+0xbea>
  4008fc:	f8dd b024 	ldr.w	fp, [sp, #36]	; 0x24
  400900:	9805      	ldr	r0, [sp, #20]
  400902:	f10b 0b04 	add.w	fp, fp, #4
  400906:	f85b 3c04 	ldr.w	r3, [fp, #-4]
  40090a:	f8cd b024 	str.w	fp, [sp, #36]	; 0x24
  40090e:	6018      	str	r0, [r3, #0]
  400910:	e5e7      	b.n	4004e2 <_vfiprintf_r+0xb6>
  400912:	f047 0720 	orr.w	r7, r7, #32
  400916:	7833      	ldrb	r3, [r6, #0]
  400918:	e614      	b.n	400544 <_vfiprintf_r+0x118>
  40091a:	9b09      	ldr	r3, [sp, #36]	; 0x24
  40091c:	2500      	movs	r5, #0
  40091e:	f247 2bd8 	movw	fp, #29400	; 0x72d8
  400922:	f047 0702 	orr.w	r7, r7, #2
  400926:	f103 0a04 	add.w	sl, r3, #4
  40092a:	f2c0 0b40 	movt	fp, #64	; 0x40
  40092e:	6819      	ldr	r1, [r3, #0]
  400930:	2330      	movs	r3, #48	; 0x30
  400932:	f88d 3048 	strb.w	r3, [sp, #72]	; 0x48
  400936:	2378      	movs	r3, #120	; 0x78
  400938:	460c      	mov	r4, r1
  40093a:	1b49      	subs	r1, r1, r5
  40093c:	bf18      	it	ne
  40093e:	2101      	movne	r1, #1
  400940:	f8cd a024 	str.w	sl, [sp, #36]	; 0x24
  400944:	f88d 3049 	strb.w	r3, [sp, #73]	; 0x49
  400948:	2202      	movs	r2, #2
  40094a:	f8cd b034 	str.w	fp, [sp, #52]	; 0x34
  40094e:	e6d1      	b.n	4006f4 <_vfiprintf_r+0x2c8>
  400950:	f047 0701 	orr.w	r7, r7, #1
  400954:	7833      	ldrb	r3, [r6, #0]
  400956:	e5f5      	b.n	400544 <_vfiprintf_r+0x118>
  400958:	7833      	ldrb	r3, [r6, #0]
  40095a:	2a00      	cmp	r2, #0
  40095c:	f47f adf2 	bne.w	400544 <_vfiprintf_r+0x118>
  400960:	2220      	movs	r2, #32
  400962:	e5ef      	b.n	400544 <_vfiprintf_r+0x118>
  400964:	f88d 2047 	strb.w	r2, [sp, #71]	; 0x47
  400968:	2b00      	cmp	r3, #0
  40096a:	f000 834a 	beq.w	401002 <_vfiprintf_r+0xbd6>
  40096e:	2501      	movs	r5, #1
  400970:	f88d 3058 	strb.w	r3, [sp, #88]	; 0x58
  400974:	9504      	str	r5, [sp, #16]
  400976:	ab16      	add	r3, sp, #88	; 0x58
  400978:	930b      	str	r3, [sp, #44]	; 0x2c
  40097a:	2300      	movs	r3, #0
  40097c:	f88d 3047 	strb.w	r3, [sp, #71]	; 0x47
  400980:	e73b      	b.n	4007fa <_vfiprintf_r+0x3ce>
  400982:	7833      	ldrb	r3, [r6, #0]
  400984:	222b      	movs	r2, #43	; 0x2b
  400986:	e5dd      	b.n	400544 <_vfiprintf_r+0x118>
  400988:	4630      	mov	r0, r6
  40098a:	f810 3b01 	ldrb.w	r3, [r0], #1
  40098e:	2b2a      	cmp	r3, #42	; 0x2a
  400990:	f000 8378 	beq.w	401084 <_vfiprintf_r+0xc58>
  400994:	f1a3 0130 	sub.w	r1, r3, #48	; 0x30
  400998:	2909      	cmp	r1, #9
  40099a:	bf84      	itt	hi
  40099c:	4606      	movhi	r6, r0
  40099e:	f04f 0c00 	movhi.w	ip, #0
  4009a2:	f63f add0 	bhi.w	400546 <_vfiprintf_r+0x11a>
  4009a6:	f04f 0c00 	mov.w	ip, #0
  4009aa:	f810 3b01 	ldrb.w	r3, [r0], #1
  4009ae:	eb0c 0c8c 	add.w	ip, ip, ip, lsl #2
  4009b2:	eb01 0c4c 	add.w	ip, r1, ip, lsl #1
  4009b6:	f1a3 0130 	sub.w	r1, r3, #48	; 0x30
  4009ba:	2909      	cmp	r1, #9
  4009bc:	4606      	mov	r6, r0
  4009be:	d9f4      	bls.n	4009aa <_vfiprintf_r+0x57e>
  4009c0:	ea4c 7cec 	orr.w	ip, ip, ip, asr #31
  4009c4:	e5bf      	b.n	400546 <_vfiprintf_r+0x11a>
  4009c6:	4630      	mov	r0, r6
  4009c8:	2100      	movs	r1, #0
  4009ca:	f1a3 0530 	sub.w	r5, r3, #48	; 0x30
  4009ce:	f810 3b01 	ldrb.w	r3, [r0], #1
  4009d2:	eb01 0181 	add.w	r1, r1, r1, lsl #2
  4009d6:	f1a3 0430 	sub.w	r4, r3, #48	; 0x30
  4009da:	4606      	mov	r6, r0
  4009dc:	2c09      	cmp	r4, #9
  4009de:	eb05 0141 	add.w	r1, r5, r1, lsl #1
  4009e2:	d9f2      	bls.n	4009ca <_vfiprintf_r+0x59e>
  4009e4:	9108      	str	r1, [sp, #32]
  4009e6:	e5ae      	b.n	400546 <_vfiprintf_r+0x11a>
  4009e8:	f047 0780 	orr.w	r7, r7, #128	; 0x80
  4009ec:	7833      	ldrb	r3, [r6, #0]
  4009ee:	e5a9      	b.n	400544 <_vfiprintf_r+0x118>
  4009f0:	465c      	mov	r4, fp
  4009f2:	46ab      	mov	fp, r5
  4009f4:	9d0e      	ldr	r5, [sp, #56]	; 0x38
  4009f6:	9a14      	ldr	r2, [sp, #80]	; 0x50
  4009f8:	9915      	ldr	r1, [sp, #84]	; 0x54
  4009fa:	3201      	adds	r2, #1
  4009fc:	f8c8 b000 	str.w	fp, [r8]
  400a00:	2a07      	cmp	r2, #7
  400a02:	f8c8 4004 	str.w	r4, [r8, #4]
  400a06:	4421      	add	r1, r4
  400a08:	9214      	str	r2, [sp, #80]	; 0x50
  400a0a:	9115      	str	r1, [sp, #84]	; 0x54
  400a0c:	bfd8      	it	le
  400a0e:	f108 0808 	addle.w	r8, r8, #8
  400a12:	dd09      	ble.n	400a28 <_vfiprintf_r+0x5fc>
  400a14:	9807      	ldr	r0, [sp, #28]
  400a16:	4649      	mov	r1, r9
  400a18:	aa13      	add	r2, sp, #76	; 0x4c
  400a1a:	f7ff fcc9 	bl	4003b0 <__sprint_r>
  400a1e:	2800      	cmp	r0, #0
  400a20:	f47f af29 	bne.w	400876 <_vfiprintf_r+0x44a>
  400a24:	f10d 08e8 	add.w	r8, sp, #232	; 0xe8
  400a28:	f89d 3047 	ldrb.w	r3, [sp, #71]	; 0x47
  400a2c:	b193      	cbz	r3, 400a54 <_vfiprintf_r+0x628>
  400a2e:	9b14      	ldr	r3, [sp, #80]	; 0x50
  400a30:	f10d 0147 	add.w	r1, sp, #71	; 0x47
  400a34:	9a15      	ldr	r2, [sp, #84]	; 0x54
  400a36:	3301      	adds	r3, #1
  400a38:	f8c8 1000 	str.w	r1, [r8]
  400a3c:	2101      	movs	r1, #1
  400a3e:	2b07      	cmp	r3, #7
  400a40:	f8c8 1004 	str.w	r1, [r8, #4]
  400a44:	440a      	add	r2, r1
  400a46:	9314      	str	r3, [sp, #80]	; 0x50
  400a48:	bfd8      	it	le
  400a4a:	f108 0808 	addle.w	r8, r8, #8
  400a4e:	9215      	str	r2, [sp, #84]	; 0x54
  400a50:	f300 81ae 	bgt.w	400db0 <_vfiprintf_r+0x984>
  400a54:	9b0a      	ldr	r3, [sp, #40]	; 0x28
  400a56:	b18b      	cbz	r3, 400a7c <_vfiprintf_r+0x650>
  400a58:	9b14      	ldr	r3, [sp, #80]	; 0x50
  400a5a:	a912      	add	r1, sp, #72	; 0x48
  400a5c:	9a15      	ldr	r2, [sp, #84]	; 0x54
  400a5e:	3301      	adds	r3, #1
  400a60:	f8c8 1000 	str.w	r1, [r8]
  400a64:	2102      	movs	r1, #2
  400a66:	2b07      	cmp	r3, #7
  400a68:	f8c8 1004 	str.w	r1, [r8, #4]
  400a6c:	440a      	add	r2, r1
  400a6e:	9314      	str	r3, [sp, #80]	; 0x50
  400a70:	bfd8      	it	le
  400a72:	f108 0808 	addle.w	r8, r8, #8
  400a76:	9215      	str	r2, [sp, #84]	; 0x54
  400a78:	f300 81a5 	bgt.w	400dc6 <_vfiprintf_r+0x99a>
  400a7c:	9b0c      	ldr	r3, [sp, #48]	; 0x30
  400a7e:	2b80      	cmp	r3, #128	; 0x80
  400a80:	f000 80d5 	beq.w	400c2e <_vfiprintf_r+0x802>
  400a84:	f8dd b018 	ldr.w	fp, [sp, #24]
  400a88:	9b04      	ldr	r3, [sp, #16]
  400a8a:	ebc3 0a0b 	rsb	sl, r3, fp
  400a8e:	f1ba 0f00 	cmp.w	sl, #0
  400a92:	dd42      	ble.n	400b1a <_vfiprintf_r+0x6ee>
  400a94:	f1ba 0f10 	cmp.w	sl, #16
  400a98:	4c97      	ldr	r4, [pc, #604]	; (400cf8 <_vfiprintf_r+0x8cc>)
  400a9a:	dd27      	ble.n	400aec <_vfiprintf_r+0x6c0>
  400a9c:	9506      	str	r5, [sp, #24]
  400a9e:	f04f 0b10 	mov.w	fp, #16
  400aa2:	4625      	mov	r5, r4
  400aa4:	9c07      	ldr	r4, [sp, #28]
  400aa6:	e004      	b.n	400ab2 <_vfiprintf_r+0x686>
  400aa8:	f1aa 0a10 	sub.w	sl, sl, #16
  400aac:	f1ba 0f10 	cmp.w	sl, #16
  400ab0:	dd1a      	ble.n	400ae8 <_vfiprintf_r+0x6bc>
  400ab2:	9b14      	ldr	r3, [sp, #80]	; 0x50
  400ab4:	f108 0808 	add.w	r8, r8, #8
  400ab8:	9a15      	ldr	r2, [sp, #84]	; 0x54
  400aba:	3301      	adds	r3, #1
  400abc:	e908 0820 	stmdb	r8, {r5, fp}
  400ac0:	3210      	adds	r2, #16
  400ac2:	2b07      	cmp	r3, #7
  400ac4:	9314      	str	r3, [sp, #80]	; 0x50
  400ac6:	9215      	str	r2, [sp, #84]	; 0x54
  400ac8:	ddee      	ble.n	400aa8 <_vfiprintf_r+0x67c>
  400aca:	4620      	mov	r0, r4
  400acc:	4649      	mov	r1, r9
  400ace:	aa13      	add	r2, sp, #76	; 0x4c
  400ad0:	f10d 08e8 	add.w	r8, sp, #232	; 0xe8
  400ad4:	f7ff fc6c 	bl	4003b0 <__sprint_r>
  400ad8:	2800      	cmp	r0, #0
  400ada:	f47f aecc 	bne.w	400876 <_vfiprintf_r+0x44a>
  400ade:	f1aa 0a10 	sub.w	sl, sl, #16
  400ae2:	f1ba 0f10 	cmp.w	sl, #16
  400ae6:	dce4      	bgt.n	400ab2 <_vfiprintf_r+0x686>
  400ae8:	462c      	mov	r4, r5
  400aea:	9d06      	ldr	r5, [sp, #24]
  400aec:	9b14      	ldr	r3, [sp, #80]	; 0x50
  400aee:	9a15      	ldr	r2, [sp, #84]	; 0x54
  400af0:	3301      	adds	r3, #1
  400af2:	e888 0410 	stmia.w	r8, {r4, sl}
  400af6:	2b07      	cmp	r3, #7
  400af8:	4452      	add	r2, sl
  400afa:	9314      	str	r3, [sp, #80]	; 0x50
  400afc:	bfd8      	it	le
  400afe:	f108 0808 	addle.w	r8, r8, #8
  400b02:	9215      	str	r2, [sp, #84]	; 0x54
  400b04:	dd09      	ble.n	400b1a <_vfiprintf_r+0x6ee>
  400b06:	9807      	ldr	r0, [sp, #28]
  400b08:	4649      	mov	r1, r9
  400b0a:	aa13      	add	r2, sp, #76	; 0x4c
  400b0c:	f7ff fc50 	bl	4003b0 <__sprint_r>
  400b10:	2800      	cmp	r0, #0
  400b12:	f47f aeb0 	bne.w	400876 <_vfiprintf_r+0x44a>
  400b16:	f10d 08e8 	add.w	r8, sp, #232	; 0xe8
  400b1a:	9b14      	ldr	r3, [sp, #80]	; 0x50
  400b1c:	9904      	ldr	r1, [sp, #16]
  400b1e:	3301      	adds	r3, #1
  400b20:	980b      	ldr	r0, [sp, #44]	; 0x2c
  400b22:	9a15      	ldr	r2, [sp, #84]	; 0x54
  400b24:	2b07      	cmp	r3, #7
  400b26:	e888 0003 	stmia.w	r8, {r0, r1}
  400b2a:	440a      	add	r2, r1
  400b2c:	9314      	str	r3, [sp, #80]	; 0x50
  400b2e:	bfd8      	it	le
  400b30:	f108 0808 	addle.w	r8, r8, #8
  400b34:	9215      	str	r2, [sp, #84]	; 0x54
  400b36:	f300 80c6 	bgt.w	400cc6 <_vfiprintf_r+0x89a>
  400b3a:	077b      	lsls	r3, r7, #29
  400b3c:	d546      	bpl.n	400bcc <_vfiprintf_r+0x7a0>
  400b3e:	9a08      	ldr	r2, [sp, #32]
  400b40:	1b54      	subs	r4, r2, r5
  400b42:	2c00      	cmp	r4, #0
  400b44:	dd42      	ble.n	400bcc <_vfiprintf_r+0x7a0>
  400b46:	2c10      	cmp	r4, #16
  400b48:	f247 2ba4 	movw	fp, #29348	; 0x72a4
  400b4c:	bfd8      	it	le
  400b4e:	f2c0 0b40 	movtle	fp, #64	; 0x40
  400b52:	dd27      	ble.n	400ba4 <_vfiprintf_r+0x778>
  400b54:	f2c0 0b40 	movt	fp, #64	; 0x40
  400b58:	2710      	movs	r7, #16
  400b5a:	465b      	mov	r3, fp
  400b5c:	f8dd a01c 	ldr.w	sl, [sp, #28]
  400b60:	46ab      	mov	fp, r5
  400b62:	461d      	mov	r5, r3
  400b64:	e002      	b.n	400b6c <_vfiprintf_r+0x740>
  400b66:	3c10      	subs	r4, #16
  400b68:	2c10      	cmp	r4, #16
  400b6a:	dd18      	ble.n	400b9e <_vfiprintf_r+0x772>
  400b6c:	9b14      	ldr	r3, [sp, #80]	; 0x50
  400b6e:	f108 0808 	add.w	r8, r8, #8
  400b72:	9a15      	ldr	r2, [sp, #84]	; 0x54
  400b74:	3301      	adds	r3, #1
  400b76:	e908 00a0 	stmdb	r8, {r5, r7}
  400b7a:	3210      	adds	r2, #16
  400b7c:	2b07      	cmp	r3, #7
  400b7e:	9314      	str	r3, [sp, #80]	; 0x50
  400b80:	9215      	str	r2, [sp, #84]	; 0x54
  400b82:	ddf0      	ble.n	400b66 <_vfiprintf_r+0x73a>
  400b84:	4650      	mov	r0, sl
  400b86:	4649      	mov	r1, r9
  400b88:	aa13      	add	r2, sp, #76	; 0x4c
  400b8a:	f10d 08e8 	add.w	r8, sp, #232	; 0xe8
  400b8e:	f7ff fc0f 	bl	4003b0 <__sprint_r>
  400b92:	2800      	cmp	r0, #0
  400b94:	f47f ae6f 	bne.w	400876 <_vfiprintf_r+0x44a>
  400b98:	3c10      	subs	r4, #16
  400b9a:	2c10      	cmp	r4, #16
  400b9c:	dce6      	bgt.n	400b6c <_vfiprintf_r+0x740>
  400b9e:	462b      	mov	r3, r5
  400ba0:	465d      	mov	r5, fp
  400ba2:	469b      	mov	fp, r3
  400ba4:	9a14      	ldr	r2, [sp, #80]	; 0x50
  400ba6:	9915      	ldr	r1, [sp, #84]	; 0x54
  400ba8:	3201      	adds	r2, #1
  400baa:	f8c8 4004 	str.w	r4, [r8, #4]
  400bae:	2a07      	cmp	r2, #7
  400bb0:	440c      	add	r4, r1
  400bb2:	f8c8 b000 	str.w	fp, [r8]
  400bb6:	9214      	str	r2, [sp, #80]	; 0x50
  400bb8:	9415      	str	r4, [sp, #84]	; 0x54
  400bba:	dd08      	ble.n	400bce <_vfiprintf_r+0x7a2>
  400bbc:	9807      	ldr	r0, [sp, #28]
  400bbe:	4649      	mov	r1, r9
  400bc0:	aa13      	add	r2, sp, #76	; 0x4c
  400bc2:	f7ff fbf5 	bl	4003b0 <__sprint_r>
  400bc6:	2800      	cmp	r0, #0
  400bc8:	f47f ae55 	bne.w	400876 <_vfiprintf_r+0x44a>
  400bcc:	9c15      	ldr	r4, [sp, #84]	; 0x54
  400bce:	9b05      	ldr	r3, [sp, #20]
  400bd0:	9808      	ldr	r0, [sp, #32]
  400bd2:	4285      	cmp	r5, r0
  400bd4:	bfac      	ite	ge
  400bd6:	195b      	addge	r3, r3, r5
  400bd8:	181b      	addlt	r3, r3, r0
  400bda:	9305      	str	r3, [sp, #20]
  400bdc:	2c00      	cmp	r4, #0
  400bde:	d17d      	bne.n	400cdc <_vfiprintf_r+0x8b0>
  400be0:	2300      	movs	r3, #0
  400be2:	9314      	str	r3, [sp, #80]	; 0x50
  400be4:	7833      	ldrb	r3, [r6, #0]
  400be6:	f10d 08e8 	add.w	r8, sp, #232	; 0xe8
  400bea:	2b25      	cmp	r3, #37	; 0x25
  400bec:	bf18      	it	ne
  400bee:	2b00      	cmpne	r3, #0
  400bf0:	f47f ac7d 	bne.w	4004ee <_vfiprintf_r+0xc2>
  400bf4:	4634      	mov	r4, r6
  400bf6:	e497      	b.n	400528 <_vfiprintf_r+0xfc>
  400bf8:	2a00      	cmp	r2, #0
  400bfa:	d178      	bne.n	400cee <_vfiprintf_r+0x8c2>
  400bfc:	07f9      	lsls	r1, r7, #31
  400bfe:	f140 811c 	bpl.w	400e3a <_vfiprintf_r+0xa0e>
  400c02:	980f      	ldr	r0, [sp, #60]	; 0x3c
  400c04:	f10d 037f 	add.w	r3, sp, #127	; 0x7f
  400c08:	930b      	str	r3, [sp, #44]	; 0x2c
  400c0a:	2330      	movs	r3, #48	; 0x30
  400c0c:	f88d 307f 	strb.w	r3, [sp, #127]	; 0x7f
  400c10:	9004      	str	r0, [sp, #16]
  400c12:	f8cd c018 	str.w	ip, [sp, #24]
  400c16:	9d04      	ldr	r5, [sp, #16]
  400c18:	f8dd a018 	ldr.w	sl, [sp, #24]
  400c1c:	4555      	cmp	r5, sl
  400c1e:	bfb8      	it	lt
  400c20:	4655      	movlt	r5, sl
  400c22:	f1bb 0f00 	cmp.w	fp, #0
  400c26:	f43f adea 	beq.w	4007fe <_vfiprintf_r+0x3d2>
  400c2a:	3501      	adds	r5, #1
  400c2c:	e5e7      	b.n	4007fe <_vfiprintf_r+0x3d2>
  400c2e:	9808      	ldr	r0, [sp, #32]
  400c30:	ebc5 0a00 	rsb	sl, r5, r0
  400c34:	f1ba 0f00 	cmp.w	sl, #0
  400c38:	f77f af24 	ble.w	400a84 <_vfiprintf_r+0x658>
  400c3c:	f1ba 0f10 	cmp.w	sl, #16
  400c40:	4c2d      	ldr	r4, [pc, #180]	; (400cf8 <_vfiprintf_r+0x8cc>)
  400c42:	dd27      	ble.n	400c94 <_vfiprintf_r+0x868>
  400c44:	950a      	str	r5, [sp, #40]	; 0x28
  400c46:	f04f 0b10 	mov.w	fp, #16
  400c4a:	4625      	mov	r5, r4
  400c4c:	9c07      	ldr	r4, [sp, #28]
  400c4e:	e004      	b.n	400c5a <_vfiprintf_r+0x82e>
  400c50:	f1aa 0a10 	sub.w	sl, sl, #16
  400c54:	f1ba 0f10 	cmp.w	sl, #16
  400c58:	dd1a      	ble.n	400c90 <_vfiprintf_r+0x864>
  400c5a:	9b14      	ldr	r3, [sp, #80]	; 0x50
  400c5c:	f108 0808 	add.w	r8, r8, #8
  400c60:	9a15      	ldr	r2, [sp, #84]	; 0x54
  400c62:	3301      	adds	r3, #1
  400c64:	e908 0820 	stmdb	r8, {r5, fp}
  400c68:	3210      	adds	r2, #16
  400c6a:	2b07      	cmp	r3, #7
  400c6c:	9314      	str	r3, [sp, #80]	; 0x50
  400c6e:	9215      	str	r2, [sp, #84]	; 0x54
  400c70:	ddee      	ble.n	400c50 <_vfiprintf_r+0x824>
  400c72:	4620      	mov	r0, r4
  400c74:	4649      	mov	r1, r9
  400c76:	aa13      	add	r2, sp, #76	; 0x4c
  400c78:	f10d 08e8 	add.w	r8, sp, #232	; 0xe8
  400c7c:	f7ff fb98 	bl	4003b0 <__sprint_r>
  400c80:	2800      	cmp	r0, #0
  400c82:	f47f adf8 	bne.w	400876 <_vfiprintf_r+0x44a>
  400c86:	f1aa 0a10 	sub.w	sl, sl, #16
  400c8a:	f1ba 0f10 	cmp.w	sl, #16
  400c8e:	dce4      	bgt.n	400c5a <_vfiprintf_r+0x82e>
  400c90:	462c      	mov	r4, r5
  400c92:	9d0a      	ldr	r5, [sp, #40]	; 0x28
  400c94:	9b14      	ldr	r3, [sp, #80]	; 0x50
  400c96:	9a15      	ldr	r2, [sp, #84]	; 0x54
  400c98:	3301      	adds	r3, #1
  400c9a:	e888 0410 	stmia.w	r8, {r4, sl}
  400c9e:	2b07      	cmp	r3, #7
  400ca0:	4452      	add	r2, sl
  400ca2:	9314      	str	r3, [sp, #80]	; 0x50
  400ca4:	bfd8      	it	le
  400ca6:	f108 0808 	addle.w	r8, r8, #8
  400caa:	9215      	str	r2, [sp, #84]	; 0x54
  400cac:	f77f aeea 	ble.w	400a84 <_vfiprintf_r+0x658>
  400cb0:	9807      	ldr	r0, [sp, #28]
  400cb2:	4649      	mov	r1, r9
  400cb4:	aa13      	add	r2, sp, #76	; 0x4c
  400cb6:	f7ff fb7b 	bl	4003b0 <__sprint_r>
  400cba:	2800      	cmp	r0, #0
  400cbc:	f47f addb 	bne.w	400876 <_vfiprintf_r+0x44a>
  400cc0:	f10d 08e8 	add.w	r8, sp, #232	; 0xe8
  400cc4:	e6de      	b.n	400a84 <_vfiprintf_r+0x658>
  400cc6:	9807      	ldr	r0, [sp, #28]
  400cc8:	4649      	mov	r1, r9
  400cca:	aa13      	add	r2, sp, #76	; 0x4c
  400ccc:	f7ff fb70 	bl	4003b0 <__sprint_r>
  400cd0:	2800      	cmp	r0, #0
  400cd2:	f47f add0 	bne.w	400876 <_vfiprintf_r+0x44a>
  400cd6:	f10d 08e8 	add.w	r8, sp, #232	; 0xe8
  400cda:	e72e      	b.n	400b3a <_vfiprintf_r+0x70e>
  400cdc:	9807      	ldr	r0, [sp, #28]
  400cde:	4649      	mov	r1, r9
  400ce0:	aa13      	add	r2, sp, #76	; 0x4c
  400ce2:	f7ff fb65 	bl	4003b0 <__sprint_r>
  400ce6:	2800      	cmp	r0, #0
  400ce8:	f43f af7a 	beq.w	400be0 <_vfiprintf_r+0x7b4>
  400cec:	e5c3      	b.n	400876 <_vfiprintf_r+0x44a>
  400cee:	9304      	str	r3, [sp, #16]
  400cf0:	ab20      	add	r3, sp, #128	; 0x80
  400cf2:	930b      	str	r3, [sp, #44]	; 0x2c
  400cf4:	e78d      	b.n	400c12 <_vfiprintf_r+0x7e6>
  400cf6:	bf00      	nop
  400cf8:	004072b4 	.word	0x004072b4
  400cfc:	9807      	ldr	r0, [sp, #28]
  400cfe:	4649      	mov	r1, r9
  400d00:	f000 f9de 	bl	4010c0 <__swsetup_r>
  400d04:	2800      	cmp	r0, #0
  400d06:	f47f adbc 	bne.w	400882 <_vfiprintf_r+0x456>
  400d0a:	f8b9 c00c 	ldrh.w	ip, [r9, #12]
  400d0e:	f00c 031a 	and.w	r3, ip, #26
  400d12:	2b0a      	cmp	r3, #10
  400d14:	f47f abcf 	bne.w	4004b6 <_vfiprintf_r+0x8a>
  400d18:	f8b9 800e 	ldrh.w	r8, [r9, #14]
  400d1c:	f418 4f00 	tst.w	r8, #32768	; 0x8000
  400d20:	f47f abc9 	bne.w	4004b6 <_vfiprintf_r+0x8a>
  400d24:	f8d9 6064 	ldr.w	r6, [r9, #100]	; 0x64
  400d28:	462a      	mov	r2, r5
  400d2a:	f8d9 7028 	ldr.w	r7, [r9, #40]	; 0x28
  400d2e:	a920      	add	r1, sp, #128	; 0x80
  400d30:	9807      	ldr	r0, [sp, #28]
  400d32:	f44f 6480 	mov.w	r4, #1024	; 0x400
  400d36:	9639      	str	r6, [sp, #228]	; 0xe4
  400d38:	ad3a      	add	r5, sp, #232	; 0xe8
  400d3a:	f8d9 6020 	ldr.w	r6, [r9, #32]
  400d3e:	f02c 0c02 	bic.w	ip, ip, #2
  400d42:	9b09      	ldr	r3, [sp, #36]	; 0x24
  400d44:	9422      	str	r4, [sp, #136]	; 0x88
  400d46:	9425      	str	r4, [sp, #148]	; 0x94
  400d48:	2400      	movs	r4, #0
  400d4a:	f8ad c08c 	strh.w	ip, [sp, #140]	; 0x8c
  400d4e:	f8ad 808e 	strh.w	r8, [sp, #142]	; 0x8e
  400d52:	9628      	str	r6, [sp, #160]	; 0xa0
  400d54:	972a      	str	r7, [sp, #168]	; 0xa8
  400d56:	9520      	str	r5, [sp, #128]	; 0x80
  400d58:	9524      	str	r5, [sp, #144]	; 0x90
  400d5a:	9426      	str	r4, [sp, #152]	; 0x98
  400d5c:	f7ff fb66 	bl	40042c <_vfiprintf_r>
  400d60:	2800      	cmp	r0, #0
  400d62:	9005      	str	r0, [sp, #20]
  400d64:	db09      	blt.n	400d7a <_vfiprintf_r+0x94e>
  400d66:	9807      	ldr	r0, [sp, #28]
  400d68:	a920      	add	r1, sp, #128	; 0x80
  400d6a:	f000 fa2b 	bl	4011c4 <_fflush_r>
  400d6e:	9e05      	ldr	r6, [sp, #20]
  400d70:	42a0      	cmp	r0, r4
  400d72:	bf18      	it	ne
  400d74:	f04f 36ff 	movne.w	r6, #4294967295
  400d78:	9605      	str	r6, [sp, #20]
  400d7a:	f8bd 308c 	ldrh.w	r3, [sp, #140]	; 0x8c
  400d7e:	f003 0340 	and.w	r3, r3, #64	; 0x40
  400d82:	b21b      	sxth	r3, r3
  400d84:	2b00      	cmp	r3, #0
  400d86:	f43f ad7f 	beq.w	400888 <_vfiprintf_r+0x45c>
  400d8a:	f8b9 300c 	ldrh.w	r3, [r9, #12]
  400d8e:	f043 0340 	orr.w	r3, r3, #64	; 0x40
  400d92:	f8a9 300c 	strh.w	r3, [r9, #12]
  400d96:	e577      	b.n	400888 <_vfiprintf_r+0x45c>
  400d98:	9807      	ldr	r0, [sp, #28]
  400d9a:	4649      	mov	r1, r9
  400d9c:	aa13      	add	r2, sp, #76	; 0x4c
  400d9e:	f7ff fb07 	bl	4003b0 <__sprint_r>
  400da2:	2800      	cmp	r0, #0
  400da4:	f47f ad67 	bne.w	400876 <_vfiprintf_r+0x44a>
  400da8:	f10d 08e8 	add.w	r8, sp, #232	; 0xe8
  400dac:	f7ff bbb9 	b.w	400522 <_vfiprintf_r+0xf6>
  400db0:	9807      	ldr	r0, [sp, #28]
  400db2:	4649      	mov	r1, r9
  400db4:	aa13      	add	r2, sp, #76	; 0x4c
  400db6:	f7ff fafb 	bl	4003b0 <__sprint_r>
  400dba:	2800      	cmp	r0, #0
  400dbc:	f47f ad5b 	bne.w	400876 <_vfiprintf_r+0x44a>
  400dc0:	f10d 08e8 	add.w	r8, sp, #232	; 0xe8
  400dc4:	e646      	b.n	400a54 <_vfiprintf_r+0x628>
  400dc6:	9807      	ldr	r0, [sp, #28]
  400dc8:	4649      	mov	r1, r9
  400dca:	aa13      	add	r2, sp, #76	; 0x4c
  400dcc:	f7ff faf0 	bl	4003b0 <__sprint_r>
  400dd0:	2800      	cmp	r0, #0
  400dd2:	f47f ad50 	bne.w	400876 <_vfiprintf_r+0x44a>
  400dd6:	f10d 08e8 	add.w	r8, sp, #232	; 0xe8
  400dda:	e64f      	b.n	400a7c <_vfiprintf_r+0x650>
  400ddc:	f000 fb24 	bl	401428 <__sinit>
  400de0:	f247 3334 	movw	r3, #29492	; 0x7334
  400de4:	f2c0 0340 	movt	r3, #64	; 0x40
  400de8:	4599      	cmp	r9, r3
  400dea:	f47f ab33 	bne.w	400454 <_vfiprintf_r+0x28>
  400dee:	9e07      	ldr	r6, [sp, #28]
  400df0:	f8d6 9004 	ldr.w	r9, [r6, #4]
  400df4:	f7ff bb3f 	b.w	400476 <_vfiprintf_r+0x4a>
  400df8:	9604      	str	r6, [sp, #16]
  400dfa:	f10d 017f 	add.w	r1, sp, #127	; 0x7f
  400dfe:	9e0d      	ldr	r6, [sp, #52]	; 0x34
  400e00:	f8cd b018 	str.w	fp, [sp, #24]
  400e04:	f04f 0a0f 	mov.w	sl, #15
  400e08:	0923      	lsrs	r3, r4, #4
  400e0a:	ea04 020a 	and.w	r2, r4, sl
  400e0e:	ea43 7305 	orr.w	r3, r3, r5, lsl #28
  400e12:	18b2      	adds	r2, r6, r2
  400e14:	ea4f 1a15 	mov.w	sl, r5, lsr #4
  400e18:	461c      	mov	r4, r3
  400e1a:	4655      	mov	r5, sl
  400e1c:	7812      	ldrb	r2, [r2, #0]
  400e1e:	4608      	mov	r0, r1
  400e20:	3901      	subs	r1, #1
  400e22:	ea54 0b05 	orrs.w	fp, r4, r5
  400e26:	7002      	strb	r2, [r0, #0]
  400e28:	d1ec      	bne.n	400e04 <_vfiprintf_r+0x9d8>
  400e2a:	9b03      	ldr	r3, [sp, #12]
  400e2c:	9e04      	ldr	r6, [sp, #16]
  400e2e:	1a1b      	subs	r3, r3, r0
  400e30:	900b      	str	r0, [sp, #44]	; 0x2c
  400e32:	f8dd b018 	ldr.w	fp, [sp, #24]
  400e36:	9304      	str	r3, [sp, #16]
  400e38:	e6eb      	b.n	400c12 <_vfiprintf_r+0x7e6>
  400e3a:	ab20      	add	r3, sp, #128	; 0x80
  400e3c:	9204      	str	r2, [sp, #16]
  400e3e:	930b      	str	r3, [sp, #44]	; 0x2c
  400e40:	e6e7      	b.n	400c12 <_vfiprintf_r+0x7e6>
  400e42:	2d00      	cmp	r5, #0
  400e44:	bf08      	it	eq
  400e46:	2c0a      	cmpeq	r4, #10
  400e48:	d36e      	bcc.n	400f28 <_vfiprintf_r+0xafc>
  400e4a:	f10d 0a7f 	add.w	sl, sp, #127	; 0x7f
  400e4e:	9604      	str	r6, [sp, #16]
  400e50:	f8cd c018 	str.w	ip, [sp, #24]
  400e54:	4620      	mov	r0, r4
  400e56:	4629      	mov	r1, r5
  400e58:	220a      	movs	r2, #10
  400e5a:	2300      	movs	r3, #0
  400e5c:	f003 fa4a 	bl	4042f4 <__aeabi_uldivmod>
  400e60:	4656      	mov	r6, sl
  400e62:	4620      	mov	r0, r4
  400e64:	4629      	mov	r1, r5
  400e66:	2300      	movs	r3, #0
  400e68:	f10a 3aff 	add.w	sl, sl, #4294967295
  400e6c:	f102 0430 	add.w	r4, r2, #48	; 0x30
  400e70:	220a      	movs	r2, #10
  400e72:	7034      	strb	r4, [r6, #0]
  400e74:	f003 fa3e 	bl	4042f4 <__aeabi_uldivmod>
  400e78:	4604      	mov	r4, r0
  400e7a:	460d      	mov	r5, r1
  400e7c:	ea54 0005 	orrs.w	r0, r4, r5
  400e80:	d1e8      	bne.n	400e54 <_vfiprintf_r+0xa28>
  400e82:	960b      	str	r6, [sp, #44]	; 0x2c
  400e84:	f8dd c018 	ldr.w	ip, [sp, #24]
  400e88:	9e04      	ldr	r6, [sp, #16]
  400e8a:	f8dd a00c 	ldr.w	sl, [sp, #12]
  400e8e:	9b0b      	ldr	r3, [sp, #44]	; 0x2c
  400e90:	ebc3 030a 	rsb	r3, r3, sl
  400e94:	9304      	str	r3, [sp, #16]
  400e96:	e6bc      	b.n	400c12 <_vfiprintf_r+0x7e6>
  400e98:	f017 0310 	ands.w	r3, r7, #16
  400e9c:	f040 808e 	bne.w	400fbc <_vfiprintf_r+0xb90>
  400ea0:	f017 0240 	ands.w	r2, r7, #64	; 0x40
  400ea4:	f000 808a 	beq.w	400fbc <_vfiprintf_r+0xb90>
  400ea8:	f8dd b024 	ldr.w	fp, [sp, #36]	; 0x24
  400eac:	461a      	mov	r2, r3
  400eae:	f8bb 4000 	ldrh.w	r4, [fp]
  400eb2:	2500      	movs	r5, #0
  400eb4:	f10b 0b04 	add.w	fp, fp, #4
  400eb8:	ea54 0005 	orrs.w	r0, r4, r5
  400ebc:	f8cd b024 	str.w	fp, [sp, #36]	; 0x24
  400ec0:	bf0c      	ite	eq
  400ec2:	2100      	moveq	r1, #0
  400ec4:	2101      	movne	r1, #1
  400ec6:	e415      	b.n	4006f4 <_vfiprintf_r+0x2c8>
  400ec8:	06fb      	lsls	r3, r7, #27
  400eca:	d457      	bmi.n	400f7c <_vfiprintf_r+0xb50>
  400ecc:	067d      	lsls	r5, r7, #25
  400ece:	d555      	bpl.n	400f7c <_vfiprintf_r+0xb50>
  400ed0:	f8dd b024 	ldr.w	fp, [sp, #36]	; 0x24
  400ed4:	f10b 0b04 	add.w	fp, fp, #4
  400ed8:	f93b 4c04 	ldrsh.w	r4, [fp, #-4]
  400edc:	f8cd b024 	str.w	fp, [sp, #36]	; 0x24
  400ee0:	4622      	mov	r2, r4
  400ee2:	17e5      	asrs	r5, r4, #31
  400ee4:	462b      	mov	r3, r5
  400ee6:	f7ff bba3 	b.w	400630 <_vfiprintf_r+0x204>
  400eea:	06fb      	lsls	r3, r7, #27
  400eec:	d436      	bmi.n	400f5c <_vfiprintf_r+0xb30>
  400eee:	067d      	lsls	r5, r7, #25
  400ef0:	d534      	bpl.n	400f5c <_vfiprintf_r+0xb30>
  400ef2:	f8dd b024 	ldr.w	fp, [sp, #36]	; 0x24
  400ef6:	2201      	movs	r2, #1
  400ef8:	f8bb 4000 	ldrh.w	r4, [fp]
  400efc:	e7d9      	b.n	400eb2 <_vfiprintf_r+0xa86>
  400efe:	2100      	movs	r1, #0
  400f00:	2202      	movs	r2, #2
  400f02:	ea54 0005 	orrs.w	r0, r4, r5
  400f06:	f43f abf5 	beq.w	4006f4 <_vfiprintf_r+0x2c8>
  400f0a:	2230      	movs	r2, #48	; 0x30
  400f0c:	f047 0702 	orr.w	r7, r7, #2
  400f10:	f88d 2048 	strb.w	r2, [sp, #72]	; 0x48
  400f14:	2101      	movs	r1, #1
  400f16:	2202      	movs	r2, #2
  400f18:	f88d 3049 	strb.w	r3, [sp, #73]	; 0x49
  400f1c:	f7ff bbea 	b.w	4006f4 <_vfiprintf_r+0x2c8>
  400f20:	7833      	ldrb	r3, [r6, #0]
  400f22:	9109      	str	r1, [sp, #36]	; 0x24
  400f24:	f7ff bb0e 	b.w	400544 <_vfiprintf_r+0x118>
  400f28:	980f      	ldr	r0, [sp, #60]	; 0x3c
  400f2a:	3430      	adds	r4, #48	; 0x30
  400f2c:	f10d 037f 	add.w	r3, sp, #127	; 0x7f
  400f30:	f88d 407f 	strb.w	r4, [sp, #127]	; 0x7f
  400f34:	930b      	str	r3, [sp, #44]	; 0x2c
  400f36:	9004      	str	r0, [sp, #16]
  400f38:	e66b      	b.n	400c12 <_vfiprintf_r+0x7e6>
  400f3a:	f8dd a00c 	ldr.w	sl, [sp, #12]
  400f3e:	ebc3 030a 	rsb	r3, r3, sl
  400f42:	9304      	str	r3, [sp, #16]
  400f44:	e665      	b.n	400c12 <_vfiprintf_r+0x7e6>
  400f46:	f8dd a024 	ldr.w	sl, [sp, #36]	; 0x24
  400f4a:	2500      	movs	r5, #0
  400f4c:	f10a 0a04 	add.w	sl, sl, #4
  400f50:	f85a 2c04 	ldr.w	r2, [sl, #-4]
  400f54:	f8cd a024 	str.w	sl, [sp, #36]	; 0x24
  400f58:	4614      	mov	r4, r2
  400f5a:	e405      	b.n	400768 <_vfiprintf_r+0x33c>
  400f5c:	f8dd a024 	ldr.w	sl, [sp, #36]	; 0x24
  400f60:	2201      	movs	r2, #1
  400f62:	f10a 0a04 	add.w	sl, sl, #4
  400f66:	f85a 1c04 	ldr.w	r1, [sl, #-4]
  400f6a:	f8cd a024 	str.w	sl, [sp, #36]	; 0x24
  400f6e:	460c      	mov	r4, r1
  400f70:	3100      	adds	r1, #0
  400f72:	bf18      	it	ne
  400f74:	2101      	movne	r1, #1
  400f76:	2500      	movs	r5, #0
  400f78:	f7ff bbbc 	b.w	4006f4 <_vfiprintf_r+0x2c8>
  400f7c:	f8dd a024 	ldr.w	sl, [sp, #36]	; 0x24
  400f80:	f10a 0a04 	add.w	sl, sl, #4
  400f84:	f85a 3c04 	ldr.w	r3, [sl, #-4]
  400f88:	f8cd a024 	str.w	sl, [sp, #36]	; 0x24
  400f8c:	461a      	mov	r2, r3
  400f8e:	461c      	mov	r4, r3
  400f90:	17dd      	asrs	r5, r3, #31
  400f92:	462b      	mov	r3, r5
  400f94:	2a00      	cmp	r2, #0
  400f96:	f173 0b00 	sbcs.w	fp, r3, #0
  400f9a:	f6bf ab4e 	bge.w	40063a <_vfiprintf_r+0x20e>
  400f9e:	4264      	negs	r4, r4
  400fa0:	eb65 0545 	sbc.w	r5, r5, r5, lsl #1
  400fa4:	f04f 0b2d 	mov.w	fp, #45	; 0x2d
  400fa8:	ea54 0105 	orrs.w	r1, r4, r5
  400fac:	f88d b047 	strb.w	fp, [sp, #71]	; 0x47
  400fb0:	bf0c      	ite	eq
  400fb2:	2100      	moveq	r1, #0
  400fb4:	2101      	movne	r1, #1
  400fb6:	2201      	movs	r2, #1
  400fb8:	f7ff bb47 	b.w	40064a <_vfiprintf_r+0x21e>
  400fbc:	f8dd a024 	ldr.w	sl, [sp, #36]	; 0x24
  400fc0:	f10a 0a04 	add.w	sl, sl, #4
  400fc4:	f85a 1c04 	ldr.w	r1, [sl, #-4]
  400fc8:	f8cd a024 	str.w	sl, [sp, #36]	; 0x24
  400fcc:	460c      	mov	r4, r1
  400fce:	3100      	adds	r1, #0
  400fd0:	bf18      	it	ne
  400fd2:	2101      	movne	r1, #1
  400fd4:	2500      	movs	r5, #0
  400fd6:	f7ff bb8d 	b.w	4006f4 <_vfiprintf_r+0x2c8>
  400fda:	f8dd a024 	ldr.w	sl, [sp, #36]	; 0x24
  400fde:	9a05      	ldr	r2, [sp, #20]
  400fe0:	f10a 0a04 	add.w	sl, sl, #4
  400fe4:	f85a 3c04 	ldr.w	r3, [sl, #-4]
  400fe8:	17d1      	asrs	r1, r2, #31
  400fea:	f8cd a024 	str.w	sl, [sp, #36]	; 0x24
  400fee:	601a      	str	r2, [r3, #0]
  400ff0:	6059      	str	r1, [r3, #4]
  400ff2:	f7ff ba76 	b.w	4004e2 <_vfiprintf_r+0xb6>
  400ff6:	f8dd a01c 	ldr.w	sl, [sp, #28]
  400ffa:	f8da 9008 	ldr.w	r9, [sl, #8]
  400ffe:	f7ff ba3a 	b.w	400476 <_vfiprintf_r+0x4a>
  401002:	9b15      	ldr	r3, [sp, #84]	; 0x54
  401004:	2b00      	cmp	r3, #0
  401006:	f43f ac36 	beq.w	400876 <_vfiprintf_r+0x44a>
  40100a:	9807      	ldr	r0, [sp, #28]
  40100c:	4649      	mov	r1, r9
  40100e:	aa13      	add	r2, sp, #76	; 0x4c
  401010:	f7ff f9ce 	bl	4003b0 <__sprint_r>
  401014:	e42f      	b.n	400876 <_vfiprintf_r+0x44a>
  401016:	f8dd a024 	ldr.w	sl, [sp, #36]	; 0x24
  40101a:	0679      	lsls	r1, r7, #25
  40101c:	bf48      	it	mi
  40101e:	f8dd b014 	ldrmi.w	fp, [sp, #20]
  401022:	f10a 0a04 	add.w	sl, sl, #4
  401026:	f85a 3c04 	ldr.w	r3, [sl, #-4]
  40102a:	bf58      	it	pl
  40102c:	9805      	ldrpl	r0, [sp, #20]
  40102e:	f8cd a024 	str.w	sl, [sp, #36]	; 0x24
  401032:	bf4c      	ite	mi
  401034:	f8a3 b000 	strhmi.w	fp, [r3]
  401038:	6018      	strpl	r0, [r3, #0]
  40103a:	f7ff ba52 	b.w	4004e2 <_vfiprintf_r+0xb6>
  40103e:	f8cd a024 	str.w	sl, [sp, #36]	; 0x24
  401042:	f001 fea7 	bl	402d94 <strlen>
  401046:	f89d b047 	ldrb.w	fp, [sp, #71]	; 0x47
  40104a:	9004      	str	r0, [sp, #16]
  40104c:	f7ff bbc2 	b.w	4007d4 <_vfiprintf_r+0x3a8>
  401050:	f1bc 0f06 	cmp.w	ip, #6
  401054:	bf34      	ite	cc
  401056:	4663      	movcc	r3, ip
  401058:	2306      	movcs	r3, #6
  40105a:	9304      	str	r3, [sp, #16]
  40105c:	9b04      	ldr	r3, [sp, #16]
  40105e:	f8cd a024 	str.w	sl, [sp, #36]	; 0x24
  401062:	ea23 75e3 	bic.w	r5, r3, r3, asr #31
  401066:	f247 23ec 	movw	r3, #29420	; 0x72ec
  40106a:	f2c0 0340 	movt	r3, #64	; 0x40
  40106e:	930b      	str	r3, [sp, #44]	; 0x2c
  401070:	f7ff bbc3 	b.w	4007fa <_vfiprintf_r+0x3ce>
  401074:	f89d b047 	ldrb.w	fp, [sp, #71]	; 0x47
  401078:	f8cd a024 	str.w	sl, [sp, #36]	; 0x24
  40107c:	f8cd c010 	str.w	ip, [sp, #16]
  401080:	9006      	str	r0, [sp, #24]
  401082:	e5c8      	b.n	400c16 <_vfiprintf_r+0x7ea>
  401084:	f8dd a024 	ldr.w	sl, [sp, #36]	; 0x24
  401088:	7873      	ldrb	r3, [r6, #1]
  40108a:	4606      	mov	r6, r0
  40108c:	f10a 0104 	add.w	r1, sl, #4
  401090:	9109      	str	r1, [sp, #36]	; 0x24
  401092:	f8da c000 	ldr.w	ip, [sl]
  401096:	f1bc 0f00 	cmp.w	ip, #0
  40109a:	bfb8      	it	lt
  40109c:	f04f 3cff 	movlt.w	ip, #4294967295
  4010a0:	f7ff ba50 	b.w	400544 <_vfiprintf_r+0x118>

004010a4 <vfiprintf>:
  4010a4:	b430      	push	{r4, r5}
  4010a6:	f240 0404 	movw	r4, #4
  4010aa:	f2c2 0400 	movt	r4, #8192	; 0x2000
  4010ae:	460d      	mov	r5, r1
  4010b0:	4613      	mov	r3, r2
  4010b2:	4601      	mov	r1, r0
  4010b4:	462a      	mov	r2, r5
  4010b6:	6820      	ldr	r0, [r4, #0]
  4010b8:	bc30      	pop	{r4, r5}
  4010ba:	f7ff b9b7 	b.w	40042c <_vfiprintf_r>
  4010be:	bf00      	nop

004010c0 <__swsetup_r>:
  4010c0:	b570      	push	{r4, r5, r6, lr}
  4010c2:	f240 0504 	movw	r5, #4
  4010c6:	f2c2 0500 	movt	r5, #8192	; 0x2000
  4010ca:	4606      	mov	r6, r0
  4010cc:	460c      	mov	r4, r1
  4010ce:	6828      	ldr	r0, [r5, #0]
  4010d0:	b110      	cbz	r0, 4010d8 <__swsetup_r+0x18>
  4010d2:	6982      	ldr	r2, [r0, #24]
  4010d4:	2a00      	cmp	r2, #0
  4010d6:	d052      	beq.n	40117e <__swsetup_r+0xbe>
  4010d8:	f247 3334 	movw	r3, #29492	; 0x7334
  4010dc:	f2c0 0340 	movt	r3, #64	; 0x40
  4010e0:	429c      	cmp	r4, r3
  4010e2:	d054      	beq.n	40118e <__swsetup_r+0xce>
  4010e4:	f247 3314 	movw	r3, #29460	; 0x7314
  4010e8:	f2c0 0340 	movt	r3, #64	; 0x40
  4010ec:	429c      	cmp	r4, r3
  4010ee:	d066      	beq.n	4011be <__swsetup_r+0xfe>
  4010f0:	f247 23f4 	movw	r3, #29428	; 0x72f4
  4010f4:	f2c0 0340 	movt	r3, #64	; 0x40
  4010f8:	429c      	cmp	r4, r3
  4010fa:	bf04      	itt	eq
  4010fc:	682b      	ldreq	r3, [r5, #0]
  4010fe:	68dc      	ldreq	r4, [r3, #12]
  401100:	89a3      	ldrh	r3, [r4, #12]
  401102:	f003 0208 	and.w	r2, r3, #8
  401106:	4619      	mov	r1, r3
  401108:	b212      	sxth	r2, r2
  40110a:	b16a      	cbz	r2, 401128 <__swsetup_r+0x68>
  40110c:	6922      	ldr	r2, [r4, #16]
  40110e:	b1d2      	cbz	r2, 401146 <__swsetup_r+0x86>
  401110:	f013 0101 	ands.w	r1, r3, #1
  401114:	d123      	bne.n	40115e <__swsetup_r+0x9e>
  401116:	f003 0302 	and.w	r3, r3, #2
  40111a:	b21b      	sxth	r3, r3
  40111c:	b903      	cbnz	r3, 401120 <__swsetup_r+0x60>
  40111e:	6961      	ldr	r1, [r4, #20]
  401120:	60a1      	str	r1, [r4, #8]
  401122:	b31a      	cbz	r2, 40116c <__swsetup_r+0xac>
  401124:	2000      	movs	r0, #0
  401126:	bd70      	pop	{r4, r5, r6, pc}
  401128:	f003 0210 	and.w	r2, r3, #16
  40112c:	b212      	sxth	r2, r2
  40112e:	b31a      	cbz	r2, 401178 <__swsetup_r+0xb8>
  401130:	f001 0104 	and.w	r1, r1, #4
  401134:	b209      	sxth	r1, r1
  401136:	2900      	cmp	r1, #0
  401138:	d12c      	bne.n	401194 <__swsetup_r+0xd4>
  40113a:	6922      	ldr	r2, [r4, #16]
  40113c:	f043 0308 	orr.w	r3, r3, #8
  401140:	81a3      	strh	r3, [r4, #12]
  401142:	2a00      	cmp	r2, #0
  401144:	d1e4      	bne.n	401110 <__swsetup_r+0x50>
  401146:	f403 7120 	and.w	r1, r3, #640	; 0x280
  40114a:	f5b1 7f00 	cmp.w	r1, #512	; 0x200
  40114e:	d0df      	beq.n	401110 <__swsetup_r+0x50>
  401150:	4630      	mov	r0, r6
  401152:	4621      	mov	r1, r4
  401154:	f000 fdd8 	bl	401d08 <__smakebuf_r>
  401158:	89a3      	ldrh	r3, [r4, #12]
  40115a:	6922      	ldr	r2, [r4, #16]
  40115c:	e7d8      	b.n	401110 <__swsetup_r+0x50>
  40115e:	6963      	ldr	r3, [r4, #20]
  401160:	2100      	movs	r1, #0
  401162:	60a1      	str	r1, [r4, #8]
  401164:	425b      	negs	r3, r3
  401166:	61a3      	str	r3, [r4, #24]
  401168:	2a00      	cmp	r2, #0
  40116a:	d1db      	bne.n	401124 <__swsetup_r+0x64>
  40116c:	89a3      	ldrh	r3, [r4, #12]
  40116e:	f003 0380 	and.w	r3, r3, #128	; 0x80
  401172:	b21b      	sxth	r3, r3
  401174:	2b00      	cmp	r3, #0
  401176:	d0d5      	beq.n	401124 <__swsetup_r+0x64>
  401178:	f04f 30ff 	mov.w	r0, #4294967295
  40117c:	bd70      	pop	{r4, r5, r6, pc}
  40117e:	f000 f953 	bl	401428 <__sinit>
  401182:	f247 3334 	movw	r3, #29492	; 0x7334
  401186:	f2c0 0340 	movt	r3, #64	; 0x40
  40118a:	429c      	cmp	r4, r3
  40118c:	d1aa      	bne.n	4010e4 <__swsetup_r+0x24>
  40118e:	682b      	ldr	r3, [r5, #0]
  401190:	685c      	ldr	r4, [r3, #4]
  401192:	e7b5      	b.n	401100 <__swsetup_r+0x40>
  401194:	6b61      	ldr	r1, [r4, #52]	; 0x34
  401196:	b149      	cbz	r1, 4011ac <__swsetup_r+0xec>
  401198:	f104 0244 	add.w	r2, r4, #68	; 0x44
  40119c:	4291      	cmp	r1, r2
  40119e:	d003      	beq.n	4011a8 <__swsetup_r+0xe8>
  4011a0:	4630      	mov	r0, r6
  4011a2:	f000 fabb 	bl	40171c <_free_r>
  4011a6:	89a3      	ldrh	r3, [r4, #12]
  4011a8:	2200      	movs	r2, #0
  4011aa:	6362      	str	r2, [r4, #52]	; 0x34
  4011ac:	f023 0324 	bic.w	r3, r3, #36	; 0x24
  4011b0:	6922      	ldr	r2, [r4, #16]
  4011b2:	2100      	movs	r1, #0
  4011b4:	6061      	str	r1, [r4, #4]
  4011b6:	041b      	lsls	r3, r3, #16
  4011b8:	6022      	str	r2, [r4, #0]
  4011ba:	0c1b      	lsrs	r3, r3, #16
  4011bc:	e7be      	b.n	40113c <__swsetup_r+0x7c>
  4011be:	682b      	ldr	r3, [r5, #0]
  4011c0:	689c      	ldr	r4, [r3, #8]
  4011c2:	e79d      	b.n	401100 <__swsetup_r+0x40>

004011c4 <_fflush_r>:
  4011c4:	690b      	ldr	r3, [r1, #16]
  4011c6:	e92d 41f0 	stmdb	sp!, {r4, r5, r6, r7, r8, lr}
  4011ca:	460c      	mov	r4, r1
  4011cc:	4680      	mov	r8, r0
  4011ce:	2b00      	cmp	r3, #0
  4011d0:	d03d      	beq.n	40124e <_fflush_r+0x8a>
  4011d2:	b110      	cbz	r0, 4011da <_fflush_r+0x16>
  4011d4:	6983      	ldr	r3, [r0, #24]
  4011d6:	2b00      	cmp	r3, #0
  4011d8:	d07d      	beq.n	4012d6 <_fflush_r+0x112>
  4011da:	f247 3334 	movw	r3, #29492	; 0x7334
  4011de:	f2c0 0340 	movt	r3, #64	; 0x40
  4011e2:	429c      	cmp	r4, r3
  4011e4:	bf08      	it	eq
  4011e6:	f8d8 4004 	ldreq.w	r4, [r8, #4]
  4011ea:	d010      	beq.n	40120e <_fflush_r+0x4a>
  4011ec:	f247 3314 	movw	r3, #29460	; 0x7314
  4011f0:	f2c0 0340 	movt	r3, #64	; 0x40
  4011f4:	429c      	cmp	r4, r3
  4011f6:	bf08      	it	eq
  4011f8:	f8d8 4008 	ldreq.w	r4, [r8, #8]
  4011fc:	d007      	beq.n	40120e <_fflush_r+0x4a>
  4011fe:	f247 23f4 	movw	r3, #29428	; 0x72f4
  401202:	f2c0 0340 	movt	r3, #64	; 0x40
  401206:	429c      	cmp	r4, r3
  401208:	bf08      	it	eq
  40120a:	f8d8 400c 	ldreq.w	r4, [r8, #12]
  40120e:	89a3      	ldrh	r3, [r4, #12]
  401210:	b1eb      	cbz	r3, 40124e <_fflush_r+0x8a>
  401212:	f003 0208 	and.w	r2, r3, #8
  401216:	b212      	sxth	r2, r2
  401218:	b1e2      	cbz	r2, 401254 <_fflush_r+0x90>
  40121a:	6926      	ldr	r6, [r4, #16]
  40121c:	b1be      	cbz	r6, 40124e <_fflush_r+0x8a>
  40121e:	079b      	lsls	r3, r3, #30
  401220:	6825      	ldr	r5, [r4, #0]
  401222:	6026      	str	r6, [r4, #0]
  401224:	bf08      	it	eq
  401226:	6963      	ldreq	r3, [r4, #20]
  401228:	ebc6 0505 	rsb	r5, r6, r5
  40122c:	bf18      	it	ne
  40122e:	2300      	movne	r3, #0
  401230:	60a3      	str	r3, [r4, #8]
  401232:	e00a      	b.n	40124a <_fflush_r+0x86>
  401234:	4632      	mov	r2, r6
  401236:	462b      	mov	r3, r5
  401238:	6aa7      	ldr	r7, [r4, #40]	; 0x28
  40123a:	4640      	mov	r0, r8
  40123c:	6a21      	ldr	r1, [r4, #32]
  40123e:	47b8      	blx	r7
  401240:	2800      	cmp	r0, #0
  401242:	ebc0 0505 	rsb	r5, r0, r5
  401246:	4406      	add	r6, r0
  401248:	dd53      	ble.n	4012f2 <_fflush_r+0x12e>
  40124a:	2d00      	cmp	r5, #0
  40124c:	dcf2      	bgt.n	401234 <_fflush_r+0x70>
  40124e:	2000      	movs	r0, #0
  401250:	e8bd 81f0 	ldmia.w	sp!, {r4, r5, r6, r7, r8, pc}
  401254:	6862      	ldr	r2, [r4, #4]
  401256:	f443 6100 	orr.w	r1, r3, #2048	; 0x800
  40125a:	81a1      	strh	r1, [r4, #12]
  40125c:	2a00      	cmp	r2, #0
  40125e:	dd6b      	ble.n	401338 <_fflush_r+0x174>
  401260:	6ae5      	ldr	r5, [r4, #44]	; 0x2c
  401262:	2d00      	cmp	r5, #0
  401264:	d0f3      	beq.n	40124e <_fflush_r+0x8a>
  401266:	f403 5380 	and.w	r3, r3, #4096	; 0x1000
  40126a:	f8d8 6000 	ldr.w	r6, [r8]
  40126e:	2200      	movs	r2, #0
  401270:	f8c8 2000 	str.w	r2, [r8]
  401274:	b21f      	sxth	r7, r3
  401276:	2f00      	cmp	r7, #0
  401278:	d030      	beq.n	4012dc <_fflush_r+0x118>
  40127a:	6d62      	ldr	r2, [r4, #84]	; 0x54
  40127c:	f001 0104 	and.w	r1, r1, #4
  401280:	b209      	sxth	r1, r1
  401282:	b129      	cbz	r1, 401290 <_fflush_r+0xcc>
  401284:	6861      	ldr	r1, [r4, #4]
  401286:	6b63      	ldr	r3, [r4, #52]	; 0x34
  401288:	1a52      	subs	r2, r2, r1
  40128a:	b10b      	cbz	r3, 401290 <_fflush_r+0xcc>
  40128c:	6c23      	ldr	r3, [r4, #64]	; 0x40
  40128e:	1ad2      	subs	r2, r2, r3
  401290:	2300      	movs	r3, #0
  401292:	4640      	mov	r0, r8
  401294:	6a21      	ldr	r1, [r4, #32]
  401296:	47a8      	blx	r5
  401298:	1c42      	adds	r2, r0, #1
  40129a:	d032      	beq.n	401302 <_fflush_r+0x13e>
  40129c:	89a3      	ldrh	r3, [r4, #12]
  40129e:	2500      	movs	r5, #0
  4012a0:	6922      	ldr	r2, [r4, #16]
  4012a2:	f403 5180 	and.w	r1, r3, #4096	; 0x1000
  4012a6:	6065      	str	r5, [r4, #4]
  4012a8:	f423 6300 	bic.w	r3, r3, #2048	; 0x800
  4012ac:	81a3      	strh	r3, [r4, #12]
  4012ae:	b209      	sxth	r1, r1
  4012b0:	6022      	str	r2, [r4, #0]
  4012b2:	2900      	cmp	r1, #0
  4012b4:	d13e      	bne.n	401334 <_fflush_r+0x170>
  4012b6:	6b61      	ldr	r1, [r4, #52]	; 0x34
  4012b8:	f8c8 6000 	str.w	r6, [r8]
  4012bc:	2900      	cmp	r1, #0
  4012be:	d0c6      	beq.n	40124e <_fflush_r+0x8a>
  4012c0:	f104 0344 	add.w	r3, r4, #68	; 0x44
  4012c4:	4299      	cmp	r1, r3
  4012c6:	d002      	beq.n	4012ce <_fflush_r+0x10a>
  4012c8:	4640      	mov	r0, r8
  4012ca:	f000 fa27 	bl	40171c <_free_r>
  4012ce:	2000      	movs	r0, #0
  4012d0:	6360      	str	r0, [r4, #52]	; 0x34
  4012d2:	e8bd 81f0 	ldmia.w	sp!, {r4, r5, r6, r7, r8, pc}
  4012d6:	f000 f8a7 	bl	401428 <__sinit>
  4012da:	e77e      	b.n	4011da <_fflush_r+0x16>
  4012dc:	6a21      	ldr	r1, [r4, #32]
  4012de:	463a      	mov	r2, r7
  4012e0:	2301      	movs	r3, #1
  4012e2:	4640      	mov	r0, r8
  4012e4:	47a8      	blx	r5
  4012e6:	1c41      	adds	r1, r0, #1
  4012e8:	4602      	mov	r2, r0
  4012ea:	d029      	beq.n	401340 <_fflush_r+0x17c>
  4012ec:	89a1      	ldrh	r1, [r4, #12]
  4012ee:	6ae5      	ldr	r5, [r4, #44]	; 0x2c
  4012f0:	e7c4      	b.n	40127c <_fflush_r+0xb8>
  4012f2:	89a3      	ldrh	r3, [r4, #12]
  4012f4:	f04f 30ff 	mov.w	r0, #4294967295
  4012f8:	f043 0340 	orr.w	r3, r3, #64	; 0x40
  4012fc:	81a3      	strh	r3, [r4, #12]
  4012fe:	e8bd 81f0 	ldmia.w	sp!, {r4, r5, r6, r7, r8, pc}
  401302:	f8d8 7000 	ldr.w	r7, [r8]
  401306:	2f1d      	cmp	r7, #29
  401308:	d8f3      	bhi.n	4012f2 <_fflush_r+0x12e>
  40130a:	f44f 7301 	mov.w	r3, #516	; 0x204
  40130e:	f2c8 0300 	movt	r3, #32768	; 0x8000
  401312:	40bb      	lsls	r3, r7
  401314:	d5ed      	bpl.n	4012f2 <_fflush_r+0x12e>
  401316:	89a3      	ldrh	r3, [r4, #12]
  401318:	2500      	movs	r5, #0
  40131a:	6922      	ldr	r2, [r4, #16]
  40131c:	f403 5180 	and.w	r1, r3, #4096	; 0x1000
  401320:	6065      	str	r5, [r4, #4]
  401322:	f423 6300 	bic.w	r3, r3, #2048	; 0x800
  401326:	81a3      	strh	r3, [r4, #12]
  401328:	b209      	sxth	r1, r1
  40132a:	6022      	str	r2, [r4, #0]
  40132c:	2900      	cmp	r1, #0
  40132e:	d0c2      	beq.n	4012b6 <_fflush_r+0xf2>
  401330:	2f00      	cmp	r7, #0
  401332:	d1c0      	bne.n	4012b6 <_fflush_r+0xf2>
  401334:	6560      	str	r0, [r4, #84]	; 0x54
  401336:	e7be      	b.n	4012b6 <_fflush_r+0xf2>
  401338:	6c22      	ldr	r2, [r4, #64]	; 0x40
  40133a:	2a00      	cmp	r2, #0
  40133c:	dc90      	bgt.n	401260 <_fflush_r+0x9c>
  40133e:	e786      	b.n	40124e <_fflush_r+0x8a>
  401340:	f8d8 3000 	ldr.w	r3, [r8]
  401344:	2b00      	cmp	r3, #0
  401346:	d0d1      	beq.n	4012ec <_fflush_r+0x128>
  401348:	2b1d      	cmp	r3, #29
  40134a:	bf18      	it	ne
  40134c:	2b16      	cmpne	r3, #22
  40134e:	d1d0      	bne.n	4012f2 <_fflush_r+0x12e>
  401350:	f8c8 6000 	str.w	r6, [r8]
  401354:	4638      	mov	r0, r7
  401356:	e8bd 81f0 	ldmia.w	sp!, {r4, r5, r6, r7, r8, pc}
  40135a:	bf00      	nop

0040135c <fflush>:
  40135c:	b138      	cbz	r0, 40136e <fflush+0x12>
  40135e:	f240 0304 	movw	r3, #4
  401362:	4601      	mov	r1, r0
  401364:	f2c2 0300 	movt	r3, #8192	; 0x2000
  401368:	6818      	ldr	r0, [r3, #0]
  40136a:	f7ff bf2b 	b.w	4011c4 <_fflush_r>
  40136e:	f247 3354 	movw	r3, #29524	; 0x7354
  401372:	f241 11c5 	movw	r1, #4549	; 0x11c5
  401376:	f2c0 0340 	movt	r3, #64	; 0x40
  40137a:	f2c0 0140 	movt	r1, #64	; 0x40
  40137e:	6818      	ldr	r0, [r3, #0]
  401380:	f000 bc4a 	b.w	401c18 <_fwalk_reent>

00401384 <__fp_lock>:
  401384:	2000      	movs	r0, #0
  401386:	4770      	bx	lr

00401388 <__fp_unlock>:
  401388:	2000      	movs	r0, #0
  40138a:	4770      	bx	lr

0040138c <_cleanup_r>:
  40138c:	f243 1105 	movw	r1, #12549	; 0x3105
  401390:	f2c0 0140 	movt	r1, #64	; 0x40
  401394:	f000 bc1a 	b.w	401bcc <_fwalk>

00401398 <std.isra.0>:
  401398:	b510      	push	{r4, lr}
  40139a:	4604      	mov	r4, r0
  40139c:	2300      	movs	r3, #0
  40139e:	305c      	adds	r0, #92	; 0x5c
  4013a0:	81a1      	strh	r1, [r4, #12]
  4013a2:	4619      	mov	r1, r3
  4013a4:	81e2      	strh	r2, [r4, #14]
  4013a6:	2208      	movs	r2, #8
  4013a8:	6023      	str	r3, [r4, #0]
  4013aa:	6063      	str	r3, [r4, #4]
  4013ac:	60a3      	str	r3, [r4, #8]
  4013ae:	6663      	str	r3, [r4, #100]	; 0x64
  4013b0:	6123      	str	r3, [r4, #16]
  4013b2:	6163      	str	r3, [r4, #20]
  4013b4:	61a3      	str	r3, [r4, #24]
  4013b6:	f001 f955 	bl	402664 <memset>
  4013ba:	f642 302d 	movw	r0, #11053	; 0x2b2d
  4013be:	f642 3155 	movw	r1, #11093	; 0x2b55
  4013c2:	f642 3291 	movw	r2, #11153	; 0x2b91
  4013c6:	f642 33b1 	movw	r3, #11185	; 0x2bb1
  4013ca:	f2c0 0040 	movt	r0, #64	; 0x40
  4013ce:	f2c0 0140 	movt	r1, #64	; 0x40
  4013d2:	f2c0 0240 	movt	r2, #64	; 0x40
  4013d6:	f2c0 0340 	movt	r3, #64	; 0x40
  4013da:	6224      	str	r4, [r4, #32]
  4013dc:	6260      	str	r0, [r4, #36]	; 0x24
  4013de:	62a1      	str	r1, [r4, #40]	; 0x28
  4013e0:	62e2      	str	r2, [r4, #44]	; 0x2c
  4013e2:	6323      	str	r3, [r4, #48]	; 0x30
  4013e4:	bd10      	pop	{r4, pc}
  4013e6:	bf00      	nop

004013e8 <__sfmoreglue>:
  4013e8:	b570      	push	{r4, r5, r6, lr}
  4013ea:	2568      	movs	r5, #104	; 0x68
  4013ec:	460e      	mov	r6, r1
  4013ee:	fb05 f501 	mul.w	r5, r5, r1
  4013f2:	f105 010c 	add.w	r1, r5, #12
  4013f6:	f000 fcff 	bl	401df8 <_malloc_r>
  4013fa:	4604      	mov	r4, r0
  4013fc:	b148      	cbz	r0, 401412 <__sfmoreglue+0x2a>
  4013fe:	f100 030c 	add.w	r3, r0, #12
  401402:	2100      	movs	r1, #0
  401404:	6046      	str	r6, [r0, #4]
  401406:	462a      	mov	r2, r5
  401408:	4618      	mov	r0, r3
  40140a:	6021      	str	r1, [r4, #0]
  40140c:	60a3      	str	r3, [r4, #8]
  40140e:	f001 f929 	bl	402664 <memset>
  401412:	4620      	mov	r0, r4
  401414:	bd70      	pop	{r4, r5, r6, pc}
  401416:	bf00      	nop

00401418 <_cleanup>:
  401418:	f247 3354 	movw	r3, #29524	; 0x7354
  40141c:	f2c0 0340 	movt	r3, #64	; 0x40
  401420:	6818      	ldr	r0, [r3, #0]
  401422:	f7ff bfb3 	b.w	40138c <_cleanup_r>
  401426:	bf00      	nop

00401428 <__sinit>:
  401428:	b570      	push	{r4, r5, r6, lr}
  40142a:	4604      	mov	r4, r0
  40142c:	6985      	ldr	r5, [r0, #24]
  40142e:	b105      	cbz	r5, 401432 <__sinit+0xa>
  401430:	bd70      	pop	{r4, r5, r6, pc}
  401432:	f241 338d 	movw	r3, #5005	; 0x138d
  401436:	2601      	movs	r6, #1
  401438:	f2c0 0340 	movt	r3, #64	; 0x40
  40143c:	6186      	str	r6, [r0, #24]
  40143e:	6283      	str	r3, [r0, #40]	; 0x28
  401440:	f8c0 50d8 	str.w	r5, [r0, #216]	; 0xd8
  401444:	f8c0 50dc 	str.w	r5, [r0, #220]	; 0xdc
  401448:	f8c0 50e0 	str.w	r5, [r0, #224]	; 0xe0
  40144c:	f000 f81a 	bl	401484 <__sfp>
  401450:	6060      	str	r0, [r4, #4]
  401452:	4620      	mov	r0, r4
  401454:	f000 f816 	bl	401484 <__sfp>
  401458:	60a0      	str	r0, [r4, #8]
  40145a:	4620      	mov	r0, r4
  40145c:	f000 f812 	bl	401484 <__sfp>
  401460:	2104      	movs	r1, #4
  401462:	462a      	mov	r2, r5
  401464:	60e0      	str	r0, [r4, #12]
  401466:	6860      	ldr	r0, [r4, #4]
  401468:	f7ff ff96 	bl	401398 <std.isra.0>
  40146c:	68a0      	ldr	r0, [r4, #8]
  40146e:	2109      	movs	r1, #9
  401470:	4632      	mov	r2, r6
  401472:	f7ff ff91 	bl	401398 <std.isra.0>
  401476:	68e0      	ldr	r0, [r4, #12]
  401478:	2112      	movs	r1, #18
  40147a:	2202      	movs	r2, #2
  40147c:	e8bd 4070 	ldmia.w	sp!, {r4, r5, r6, lr}
  401480:	f7ff bf8a 	b.w	401398 <std.isra.0>

00401484 <__sfp>:
  401484:	f247 3354 	movw	r3, #29524	; 0x7354
  401488:	f2c0 0340 	movt	r3, #64	; 0x40
  40148c:	b570      	push	{r4, r5, r6, lr}
  40148e:	4606      	mov	r6, r0
  401490:	681d      	ldr	r5, [r3, #0]
  401492:	69ab      	ldr	r3, [r5, #24]
  401494:	2b00      	cmp	r3, #0
  401496:	d02a      	beq.n	4014ee <__sfp+0x6a>
  401498:	35d8      	adds	r5, #216	; 0xd8
  40149a:	686b      	ldr	r3, [r5, #4]
  40149c:	68ac      	ldr	r4, [r5, #8]
  40149e:	3b01      	subs	r3, #1
  4014a0:	d504      	bpl.n	4014ac <__sfp+0x28>
  4014a2:	e020      	b.n	4014e6 <__sfp+0x62>
  4014a4:	3b01      	subs	r3, #1
  4014a6:	3468      	adds	r4, #104	; 0x68
  4014a8:	1c5a      	adds	r2, r3, #1
  4014aa:	d01c      	beq.n	4014e6 <__sfp+0x62>
  4014ac:	f9b4 200c 	ldrsh.w	r2, [r4, #12]
  4014b0:	2a00      	cmp	r2, #0
  4014b2:	d1f7      	bne.n	4014a4 <__sfp+0x20>
  4014b4:	2500      	movs	r5, #0
  4014b6:	f64f 73ff 	movw	r3, #65535	; 0xffff
  4014ba:	f104 005c 	add.w	r0, r4, #92	; 0x5c
  4014be:	81e3      	strh	r3, [r4, #14]
  4014c0:	6665      	str	r5, [r4, #100]	; 0x64
  4014c2:	2301      	movs	r3, #1
  4014c4:	4629      	mov	r1, r5
  4014c6:	81a3      	strh	r3, [r4, #12]
  4014c8:	6025      	str	r5, [r4, #0]
  4014ca:	2208      	movs	r2, #8
  4014cc:	60a5      	str	r5, [r4, #8]
  4014ce:	6065      	str	r5, [r4, #4]
  4014d0:	6125      	str	r5, [r4, #16]
  4014d2:	6165      	str	r5, [r4, #20]
  4014d4:	61a5      	str	r5, [r4, #24]
  4014d6:	f001 f8c5 	bl	402664 <memset>
  4014da:	6365      	str	r5, [r4, #52]	; 0x34
  4014dc:	63a5      	str	r5, [r4, #56]	; 0x38
  4014de:	64a5      	str	r5, [r4, #72]	; 0x48
  4014e0:	64e5      	str	r5, [r4, #76]	; 0x4c
  4014e2:	4620      	mov	r0, r4
  4014e4:	bd70      	pop	{r4, r5, r6, pc}
  4014e6:	6828      	ldr	r0, [r5, #0]
  4014e8:	b128      	cbz	r0, 4014f6 <__sfp+0x72>
  4014ea:	4605      	mov	r5, r0
  4014ec:	e7d5      	b.n	40149a <__sfp+0x16>
  4014ee:	4628      	mov	r0, r5
  4014f0:	f7ff ff9a 	bl	401428 <__sinit>
  4014f4:	e7d0      	b.n	401498 <__sfp+0x14>
  4014f6:	4630      	mov	r0, r6
  4014f8:	2104      	movs	r1, #4
  4014fa:	f7ff ff75 	bl	4013e8 <__sfmoreglue>
  4014fe:	6028      	str	r0, [r5, #0]
  401500:	2800      	cmp	r0, #0
  401502:	d1f2      	bne.n	4014ea <__sfp+0x66>
  401504:	230c      	movs	r3, #12
  401506:	4604      	mov	r4, r0
  401508:	6033      	str	r3, [r6, #0]
  40150a:	e7ea      	b.n	4014e2 <__sfp+0x5e>

0040150c <__sfp_lock_acquire>:
  40150c:	4770      	bx	lr
  40150e:	bf00      	nop

00401510 <__sfp_lock_release>:
  401510:	4770      	bx	lr
  401512:	bf00      	nop

00401514 <__sinit_lock_acquire>:
  401514:	4770      	bx	lr
  401516:	bf00      	nop

00401518 <__sinit_lock_release>:
  401518:	4770      	bx	lr
  40151a:	bf00      	nop

0040151c <__fp_lock_all>:
  40151c:	f240 0304 	movw	r3, #4
  401520:	f241 3185 	movw	r1, #4997	; 0x1385
  401524:	f2c2 0300 	movt	r3, #8192	; 0x2000
  401528:	f2c0 0140 	movt	r1, #64	; 0x40
  40152c:	6818      	ldr	r0, [r3, #0]
  40152e:	f000 bb4d 	b.w	401bcc <_fwalk>
  401532:	bf00      	nop

00401534 <__fp_unlock_all>:
  401534:	f240 0304 	movw	r3, #4
  401538:	f241 3189 	movw	r1, #5001	; 0x1389
  40153c:	f2c2 0300 	movt	r3, #8192	; 0x2000
  401540:	f2c0 0140 	movt	r1, #64	; 0x40
  401544:	6818      	ldr	r0, [r3, #0]
  401546:	f000 bb41 	b.w	401bcc <_fwalk>
  40154a:	bf00      	nop

0040154c <_fputwc_r>:
  40154c:	8993      	ldrh	r3, [r2, #12]
  40154e:	e92d 43f0 	stmdb	sp!, {r4, r5, r6, r7, r8, r9, lr}
  401552:	4614      	mov	r4, r2
  401554:	f403 5200 	and.w	r2, r3, #8192	; 0x2000
  401558:	b083      	sub	sp, #12
  40155a:	4607      	mov	r7, r0
  40155c:	460e      	mov	r6, r1
  40155e:	b212      	sxth	r2, r2
  401560:	b932      	cbnz	r2, 401570 <_fputwc_r+0x24>
  401562:	6e62      	ldr	r2, [r4, #100]	; 0x64
  401564:	f443 5300 	orr.w	r3, r3, #8192	; 0x2000
  401568:	81a3      	strh	r3, [r4, #12]
  40156a:	f442 5200 	orr.w	r2, r2, #8192	; 0x2000
  40156e:	6662      	str	r2, [r4, #100]	; 0x64
  401570:	f000 fbac 	bl	401ccc <__locale_mb_cur_max>
  401574:	2801      	cmp	r0, #1
  401576:	d049      	beq.n	40160c <_fputwc_r+0xc0>
  401578:	f10d 0804 	add.w	r8, sp, #4
  40157c:	4638      	mov	r0, r7
  40157e:	4641      	mov	r1, r8
  401580:	4632      	mov	r2, r6
  401582:	f104 035c 	add.w	r3, r4, #92	; 0x5c
  401586:	f001 fcb5 	bl	402ef4 <_wcrtomb_r>
  40158a:	1c42      	adds	r2, r0, #1
  40158c:	4681      	mov	r9, r0
  40158e:	d027      	beq.n	4015e0 <_fputwc_r+0x94>
  401590:	2800      	cmp	r0, #0
  401592:	d039      	beq.n	401608 <_fputwc_r+0xbc>
  401594:	2500      	movs	r5, #0
  401596:	e009      	b.n	4015ac <_fputwc_r+0x60>
  401598:	6823      	ldr	r3, [r4, #0]
  40159a:	f818 2005 	ldrb.w	r2, [r8, r5]
  40159e:	701a      	strb	r2, [r3, #0]
  4015a0:	6823      	ldr	r3, [r4, #0]
  4015a2:	3301      	adds	r3, #1
  4015a4:	6023      	str	r3, [r4, #0]
  4015a6:	3501      	adds	r5, #1
  4015a8:	454d      	cmp	r5, r9
  4015aa:	d22d      	bcs.n	401608 <_fputwc_r+0xbc>
  4015ac:	68a3      	ldr	r3, [r4, #8]
  4015ae:	3b01      	subs	r3, #1
  4015b0:	60a3      	str	r3, [r4, #8]
  4015b2:	2b00      	cmp	r3, #0
  4015b4:	daf0      	bge.n	401598 <_fputwc_r+0x4c>
  4015b6:	69a2      	ldr	r2, [r4, #24]
  4015b8:	2000      	movs	r0, #0
  4015ba:	4293      	cmp	r3, r2
  4015bc:	db17      	blt.n	4015ee <_fputwc_r+0xa2>
  4015be:	6823      	ldr	r3, [r4, #0]
  4015c0:	f818 2005 	ldrb.w	r2, [r8, r5]
  4015c4:	701a      	strb	r2, [r3, #0]
  4015c6:	6823      	ldr	r3, [r4, #0]
  4015c8:	1c5a      	adds	r2, r3, #1
  4015ca:	7819      	ldrb	r1, [r3, #0]
  4015cc:	290a      	cmp	r1, #10
  4015ce:	bf14      	ite	ne
  4015d0:	6022      	strne	r2, [r4, #0]
  4015d2:	4638      	moveq	r0, r7
  4015d4:	d00e      	beq.n	4015f4 <_fputwc_r+0xa8>
  4015d6:	2800      	cmp	r0, #0
  4015d8:	d0e5      	beq.n	4015a6 <_fputwc_r+0x5a>
  4015da:	f04f 30ff 	mov.w	r0, #4294967295
  4015de:	e003      	b.n	4015e8 <_fputwc_r+0x9c>
  4015e0:	89a3      	ldrh	r3, [r4, #12]
  4015e2:	f043 0340 	orr.w	r3, r3, #64	; 0x40
  4015e6:	81a3      	strh	r3, [r4, #12]
  4015e8:	b003      	add	sp, #12
  4015ea:	e8bd 83f0 	ldmia.w	sp!, {r4, r5, r6, r7, r8, r9, pc}
  4015ee:	f818 1005 	ldrb.w	r1, [r8, r5]
  4015f2:	4638      	mov	r0, r7
  4015f4:	4622      	mov	r2, r4
  4015f6:	f001 fbfd 	bl	402df4 <__swbuf_r>
  4015fa:	f1b0 33ff 	subs.w	r3, r0, #4294967295
  4015fe:	4258      	negs	r0, r3
  401600:	4158      	adcs	r0, r3
  401602:	2800      	cmp	r0, #0
  401604:	d0cf      	beq.n	4015a6 <_fputwc_r+0x5a>
  401606:	e7e8      	b.n	4015da <_fputwc_r+0x8e>
  401608:	4630      	mov	r0, r6
  40160a:	e7ed      	b.n	4015e8 <_fputwc_r+0x9c>
  40160c:	1e73      	subs	r3, r6, #1
  40160e:	2bfe      	cmp	r3, #254	; 0xfe
  401610:	d8b2      	bhi.n	401578 <_fputwc_r+0x2c>
  401612:	f10d 0808 	add.w	r8, sp, #8
  401616:	4681      	mov	r9, r0
  401618:	f808 6d04 	strb.w	r6, [r8, #-4]!
  40161c:	e7ba      	b.n	401594 <_fputwc_r+0x48>
  40161e:	bf00      	nop

00401620 <fputwc>:
  401620:	b570      	push	{r4, r5, r6, lr}
  401622:	f240 0504 	movw	r5, #4
  401626:	f2c2 0500 	movt	r5, #8192	; 0x2000
  40162a:	4606      	mov	r6, r0
  40162c:	460c      	mov	r4, r1
  40162e:	6828      	ldr	r0, [r5, #0]
  401630:	b108      	cbz	r0, 401636 <fputwc+0x16>
  401632:	6983      	ldr	r3, [r0, #24]
  401634:	b1e3      	cbz	r3, 401670 <fputwc+0x50>
  401636:	f247 3334 	movw	r3, #29492	; 0x7334
  40163a:	f2c0 0340 	movt	r3, #64	; 0x40
  40163e:	429c      	cmp	r4, r3
  401640:	bf08      	it	eq
  401642:	6844      	ldreq	r4, [r0, #4]
  401644:	d00e      	beq.n	401664 <fputwc+0x44>
  401646:	f247 3314 	movw	r3, #29460	; 0x7314
  40164a:	f2c0 0340 	movt	r3, #64	; 0x40
  40164e:	429c      	cmp	r4, r3
  401650:	bf08      	it	eq
  401652:	6884      	ldreq	r4, [r0, #8]
  401654:	d006      	beq.n	401664 <fputwc+0x44>
  401656:	f247 23f4 	movw	r3, #29428	; 0x72f4
  40165a:	f2c0 0340 	movt	r3, #64	; 0x40
  40165e:	429c      	cmp	r4, r3
  401660:	bf08      	it	eq
  401662:	68c4      	ldreq	r4, [r0, #12]
  401664:	4631      	mov	r1, r6
  401666:	4622      	mov	r2, r4
  401668:	e8bd 4070 	ldmia.w	sp!, {r4, r5, r6, lr}
  40166c:	f7ff bf6e 	b.w	40154c <_fputwc_r>
  401670:	f7ff feda 	bl	401428 <__sinit>
  401674:	6828      	ldr	r0, [r5, #0]
  401676:	e7de      	b.n	401636 <fputwc+0x16>

00401678 <_malloc_trim_r>:
  401678:	b5f8      	push	{r3, r4, r5, r6, r7, lr}
  40167a:	f240 1474 	movw	r4, #372	; 0x174
  40167e:	f2c2 0400 	movt	r4, #8192	; 0x2000
  401682:	460f      	mov	r7, r1
  401684:	4605      	mov	r5, r0
  401686:	f001 f853 	bl	402730 <__malloc_lock>
  40168a:	68a3      	ldr	r3, [r4, #8]
  40168c:	685e      	ldr	r6, [r3, #4]
  40168e:	f026 0603 	bic.w	r6, r6, #3
  401692:	f606 73ef 	addw	r3, r6, #4079	; 0xfef
  401696:	1bdf      	subs	r7, r3, r7
  401698:	0b3f      	lsrs	r7, r7, #12
  40169a:	3f01      	subs	r7, #1
  40169c:	033f      	lsls	r7, r7, #12
  40169e:	f5b7 5f80 	cmp.w	r7, #4096	; 0x1000
  4016a2:	db07      	blt.n	4016b4 <_malloc_trim_r+0x3c>
  4016a4:	2100      	movs	r1, #0
  4016a6:	4628      	mov	r0, r5
  4016a8:	f001 fa2c 	bl	402b04 <_sbrk_r>
  4016ac:	68a3      	ldr	r3, [r4, #8]
  4016ae:	199b      	adds	r3, r3, r6
  4016b0:	4298      	cmp	r0, r3
  4016b2:	d004      	beq.n	4016be <_malloc_trim_r+0x46>
  4016b4:	4628      	mov	r0, r5
  4016b6:	f001 f83d 	bl	402734 <__malloc_unlock>
  4016ba:	2000      	movs	r0, #0
  4016bc:	bdf8      	pop	{r3, r4, r5, r6, r7, pc}
  4016be:	4279      	negs	r1, r7
  4016c0:	4628      	mov	r0, r5
  4016c2:	f001 fa1f 	bl	402b04 <_sbrk_r>
  4016c6:	3001      	adds	r0, #1
  4016c8:	d010      	beq.n	4016ec <_malloc_trim_r+0x74>
  4016ca:	f240 53ac 	movw	r3, #1452	; 0x5ac
  4016ce:	68a1      	ldr	r1, [r4, #8]
  4016d0:	f2c2 0300 	movt	r3, #8192	; 0x2000
  4016d4:	1bf6      	subs	r6, r6, r7
  4016d6:	4628      	mov	r0, r5
  4016d8:	f046 0601 	orr.w	r6, r6, #1
  4016dc:	681a      	ldr	r2, [r3, #0]
  4016de:	604e      	str	r6, [r1, #4]
  4016e0:	1bd7      	subs	r7, r2, r7
  4016e2:	601f      	str	r7, [r3, #0]
  4016e4:	f001 f826 	bl	402734 <__malloc_unlock>
  4016e8:	2001      	movs	r0, #1
  4016ea:	bdf8      	pop	{r3, r4, r5, r6, r7, pc}
  4016ec:	2100      	movs	r1, #0
  4016ee:	4628      	mov	r0, r5
  4016f0:	f001 fa08 	bl	402b04 <_sbrk_r>
  4016f4:	68a3      	ldr	r3, [r4, #8]
  4016f6:	1ac2      	subs	r2, r0, r3
  4016f8:	2a0f      	cmp	r2, #15
  4016fa:	dddb      	ble.n	4016b4 <_malloc_trim_r+0x3c>
  4016fc:	f240 547c 	movw	r4, #1404	; 0x57c
  401700:	f240 51ac 	movw	r1, #1452	; 0x5ac
  401704:	f2c2 0400 	movt	r4, #8192	; 0x2000
  401708:	f2c2 0100 	movt	r1, #8192	; 0x2000
  40170c:	f042 0201 	orr.w	r2, r2, #1
  401710:	605a      	str	r2, [r3, #4]
  401712:	6823      	ldr	r3, [r4, #0]
  401714:	1ac0      	subs	r0, r0, r3
  401716:	6008      	str	r0, [r1, #0]
  401718:	e7cc      	b.n	4016b4 <_malloc_trim_r+0x3c>
  40171a:	bf00      	nop

0040171c <_free_r>:
  40171c:	e92d 41f0 	stmdb	sp!, {r4, r5, r6, r7, r8, lr}
  401720:	460e      	mov	r6, r1
  401722:	4680      	mov	r8, r0
  401724:	2900      	cmp	r1, #0
  401726:	d05c      	beq.n	4017e2 <_free_r+0xc6>
  401728:	f001 f802 	bl	402730 <__malloc_lock>
  40172c:	f240 1574 	movw	r5, #372	; 0x174
  401730:	f856 1c04 	ldr.w	r1, [r6, #-4]
  401734:	f2c2 0500 	movt	r5, #8192	; 0x2000
  401738:	f1a6 0408 	sub.w	r4, r6, #8
  40173c:	f021 0301 	bic.w	r3, r1, #1
  401740:	68af      	ldr	r7, [r5, #8]
  401742:	18e2      	adds	r2, r4, r3
  401744:	4297      	cmp	r7, r2
  401746:	6850      	ldr	r0, [r2, #4]
  401748:	f020 0003 	bic.w	r0, r0, #3
  40174c:	d067      	beq.n	40181e <_free_r+0x102>
  40174e:	f011 0101 	ands.w	r1, r1, #1
  401752:	6050      	str	r0, [r2, #4]
  401754:	d035      	beq.n	4017c2 <_free_r+0xa6>
  401756:	2100      	movs	r1, #0
  401758:	1816      	adds	r6, r2, r0
  40175a:	6876      	ldr	r6, [r6, #4]
  40175c:	f016 0f01 	tst.w	r6, #1
  401760:	d106      	bne.n	401770 <_free_r+0x54>
  401762:	181b      	adds	r3, r3, r0
  401764:	6890      	ldr	r0, [r2, #8]
  401766:	2900      	cmp	r1, #0
  401768:	d04d      	beq.n	401806 <_free_r+0xea>
  40176a:	68d2      	ldr	r2, [r2, #12]
  40176c:	60c2      	str	r2, [r0, #12]
  40176e:	6090      	str	r0, [r2, #8]
  401770:	f043 0201 	orr.w	r2, r3, #1
  401774:	50e3      	str	r3, [r4, r3]
  401776:	6062      	str	r2, [r4, #4]
  401778:	b9f1      	cbnz	r1, 4017b8 <_free_r+0x9c>
  40177a:	f5b3 7f00 	cmp.w	r3, #512	; 0x200
  40177e:	d332      	bcc.n	4017e6 <_free_r+0xca>
  401780:	0a5a      	lsrs	r2, r3, #9
  401782:	2a04      	cmp	r2, #4
  401784:	d86c      	bhi.n	401860 <_free_r+0x144>
  401786:	0998      	lsrs	r0, r3, #6
  401788:	3038      	adds	r0, #56	; 0x38
  40178a:	0041      	lsls	r1, r0, #1
  40178c:	eb05 0581 	add.w	r5, r5, r1, lsl #2
  401790:	f240 1174 	movw	r1, #372	; 0x174
  401794:	f2c2 0100 	movt	r1, #8192	; 0x2000
  401798:	68aa      	ldr	r2, [r5, #8]
  40179a:	42aa      	cmp	r2, r5
  40179c:	d06b      	beq.n	401876 <_free_r+0x15a>
  40179e:	6851      	ldr	r1, [r2, #4]
  4017a0:	f021 0103 	bic.w	r1, r1, #3
  4017a4:	428b      	cmp	r3, r1
  4017a6:	d202      	bcs.n	4017ae <_free_r+0x92>
  4017a8:	6892      	ldr	r2, [r2, #8]
  4017aa:	4295      	cmp	r5, r2
  4017ac:	d1f7      	bne.n	40179e <_free_r+0x82>
  4017ae:	68d3      	ldr	r3, [r2, #12]
  4017b0:	60e3      	str	r3, [r4, #12]
  4017b2:	60a2      	str	r2, [r4, #8]
  4017b4:	60d4      	str	r4, [r2, #12]
  4017b6:	609c      	str	r4, [r3, #8]
  4017b8:	4640      	mov	r0, r8
  4017ba:	e8bd 41f0 	ldmia.w	sp!, {r4, r5, r6, r7, r8, lr}
  4017be:	f000 bfb9 	b.w	402734 <__malloc_unlock>
  4017c2:	f856 6c08 	ldr.w	r6, [r6, #-8]
  4017c6:	f105 0c08 	add.w	ip, r5, #8
  4017ca:	1ba4      	subs	r4, r4, r6
  4017cc:	199b      	adds	r3, r3, r6
  4017ce:	68a6      	ldr	r6, [r4, #8]
  4017d0:	4566      	cmp	r6, ip
  4017d2:	d043      	beq.n	40185c <_free_r+0x140>
  4017d4:	f8d4 c00c 	ldr.w	ip, [r4, #12]
  4017d8:	f8c6 c00c 	str.w	ip, [r6, #12]
  4017dc:	f8cc 6008 	str.w	r6, [ip, #8]
  4017e0:	e7ba      	b.n	401758 <_free_r+0x3c>
  4017e2:	e8bd 81f0 	ldmia.w	sp!, {r4, r5, r6, r7, r8, pc}
  4017e6:	08db      	lsrs	r3, r3, #3
  4017e8:	2101      	movs	r1, #1
  4017ea:	6868      	ldr	r0, [r5, #4]
  4017ec:	eb05 02c3 	add.w	r2, r5, r3, lsl #3
  4017f0:	109b      	asrs	r3, r3, #2
  4017f2:	fa01 f303 	lsl.w	r3, r1, r3
  4017f6:	60e2      	str	r2, [r4, #12]
  4017f8:	6891      	ldr	r1, [r2, #8]
  4017fa:	4318      	orrs	r0, r3
  4017fc:	6068      	str	r0, [r5, #4]
  4017fe:	60a1      	str	r1, [r4, #8]
  401800:	60cc      	str	r4, [r1, #12]
  401802:	6094      	str	r4, [r2, #8]
  401804:	e7d8      	b.n	4017b8 <_free_r+0x9c>
  401806:	4e29      	ldr	r6, [pc, #164]	; (4018ac <_free_r+0x190>)
  401808:	42b0      	cmp	r0, r6
  40180a:	d1ae      	bne.n	40176a <_free_r+0x4e>
  40180c:	616c      	str	r4, [r5, #20]
  40180e:	f043 0201 	orr.w	r2, r3, #1
  401812:	612c      	str	r4, [r5, #16]
  401814:	60e0      	str	r0, [r4, #12]
  401816:	60a0      	str	r0, [r4, #8]
  401818:	6062      	str	r2, [r4, #4]
  40181a:	50e3      	str	r3, [r4, r3]
  40181c:	e7cc      	b.n	4017b8 <_free_r+0x9c>
  40181e:	18c0      	adds	r0, r0, r3
  401820:	07cb      	lsls	r3, r1, #31
  401822:	d407      	bmi.n	401834 <_free_r+0x118>
  401824:	f856 3c08 	ldr.w	r3, [r6, #-8]
  401828:	1ae4      	subs	r4, r4, r3
  40182a:	18c0      	adds	r0, r0, r3
  40182c:	68a2      	ldr	r2, [r4, #8]
  40182e:	68e3      	ldr	r3, [r4, #12]
  401830:	60d3      	str	r3, [r2, #12]
  401832:	609a      	str	r2, [r3, #8]
  401834:	f240 5280 	movw	r2, #1408	; 0x580
  401838:	f040 0301 	orr.w	r3, r0, #1
  40183c:	f2c2 0200 	movt	r2, #8192	; 0x2000
  401840:	6063      	str	r3, [r4, #4]
  401842:	60ac      	str	r4, [r5, #8]
  401844:	6813      	ldr	r3, [r2, #0]
  401846:	4298      	cmp	r0, r3
  401848:	d3b6      	bcc.n	4017b8 <_free_r+0x9c>
  40184a:	f240 53a8 	movw	r3, #1448	; 0x5a8
  40184e:	4640      	mov	r0, r8
  401850:	f2c2 0300 	movt	r3, #8192	; 0x2000
  401854:	6819      	ldr	r1, [r3, #0]
  401856:	f7ff ff0f 	bl	401678 <_malloc_trim_r>
  40185a:	e7ad      	b.n	4017b8 <_free_r+0x9c>
  40185c:	2101      	movs	r1, #1
  40185e:	e77b      	b.n	401758 <_free_r+0x3c>
  401860:	f102 005b 	add.w	r0, r2, #91	; 0x5b
  401864:	0041      	lsls	r1, r0, #1
  401866:	2a14      	cmp	r2, #20
  401868:	d990      	bls.n	40178c <_free_r+0x70>
  40186a:	2a54      	cmp	r2, #84	; 0x54
  40186c:	d80c      	bhi.n	401888 <_free_r+0x16c>
  40186e:	0b18      	lsrs	r0, r3, #12
  401870:	306e      	adds	r0, #110	; 0x6e
  401872:	0041      	lsls	r1, r0, #1
  401874:	e78a      	b.n	40178c <_free_r+0x70>
  401876:	2601      	movs	r6, #1
  401878:	684d      	ldr	r5, [r1, #4]
  40187a:	1080      	asrs	r0, r0, #2
  40187c:	4613      	mov	r3, r2
  40187e:	fa06 f000 	lsl.w	r0, r6, r0
  401882:	4305      	orrs	r5, r0
  401884:	604d      	str	r5, [r1, #4]
  401886:	e793      	b.n	4017b0 <_free_r+0x94>
  401888:	f5b2 7faa 	cmp.w	r2, #340	; 0x154
  40188c:	d803      	bhi.n	401896 <_free_r+0x17a>
  40188e:	0bd8      	lsrs	r0, r3, #15
  401890:	3077      	adds	r0, #119	; 0x77
  401892:	0041      	lsls	r1, r0, #1
  401894:	e77a      	b.n	40178c <_free_r+0x70>
  401896:	f240 5154 	movw	r1, #1364	; 0x554
  40189a:	428a      	cmp	r2, r1
  40189c:	d803      	bhi.n	4018a6 <_free_r+0x18a>
  40189e:	0c98      	lsrs	r0, r3, #18
  4018a0:	307c      	adds	r0, #124	; 0x7c
  4018a2:	0041      	lsls	r1, r0, #1
  4018a4:	e772      	b.n	40178c <_free_r+0x70>
  4018a6:	21fc      	movs	r1, #252	; 0xfc
  4018a8:	207e      	movs	r0, #126	; 0x7e
  4018aa:	e76f      	b.n	40178c <_free_r+0x70>
  4018ac:	2000017c 	.word	0x2000017c

004018b0 <__sfvwrite_r>:
  4018b0:	6893      	ldr	r3, [r2, #8]
  4018b2:	e92d 4ff0 	stmdb	sp!, {r4, r5, r6, r7, r8, r9, sl, fp, lr}
  4018b6:	4690      	mov	r8, r2
  4018b8:	b085      	sub	sp, #20
  4018ba:	4681      	mov	r9, r0
  4018bc:	460c      	mov	r4, r1
  4018be:	2b00      	cmp	r3, #0
  4018c0:	d02b      	beq.n	40191a <__sfvwrite_r+0x6a>
  4018c2:	898b      	ldrh	r3, [r1, #12]
  4018c4:	f003 0208 	and.w	r2, r3, #8
  4018c8:	b212      	sxth	r2, r2
  4018ca:	2a00      	cmp	r2, #0
  4018cc:	d029      	beq.n	401922 <__sfvwrite_r+0x72>
  4018ce:	690a      	ldr	r2, [r1, #16]
  4018d0:	2a00      	cmp	r2, #0
  4018d2:	d026      	beq.n	401922 <__sfvwrite_r+0x72>
  4018d4:	f003 0202 	and.w	r2, r3, #2
  4018d8:	f8d8 5000 	ldr.w	r5, [r8]
  4018dc:	b212      	sxth	r2, r2
  4018de:	2a00      	cmp	r2, #0
  4018e0:	d035      	beq.n	40194e <__sfvwrite_r+0x9e>
  4018e2:	f04f 0a00 	mov.w	sl, #0
  4018e6:	4657      	mov	r7, sl
  4018e8:	f5b7 6f80 	cmp.w	r7, #1024	; 0x400
  4018ec:	bf34      	ite	cc
  4018ee:	463b      	movcc	r3, r7
  4018f0:	f44f 6380 	movcs.w	r3, #1024	; 0x400
  4018f4:	4652      	mov	r2, sl
  4018f6:	4648      	mov	r0, r9
  4018f8:	2f00      	cmp	r7, #0
  4018fa:	d022      	beq.n	401942 <__sfvwrite_r+0x92>
  4018fc:	6a21      	ldr	r1, [r4, #32]
  4018fe:	6aa6      	ldr	r6, [r4, #40]	; 0x28
  401900:	47b0      	blx	r6
  401902:	2800      	cmp	r0, #0
  401904:	4482      	add	sl, r0
  401906:	ebc0 0707 	rsb	r7, r0, r7
  40190a:	dd69      	ble.n	4019e0 <__sfvwrite_r+0x130>
  40190c:	f8d8 3008 	ldr.w	r3, [r8, #8]
  401910:	1a18      	subs	r0, r3, r0
  401912:	f8c8 0008 	str.w	r0, [r8, #8]
  401916:	2800      	cmp	r0, #0
  401918:	d1e6      	bne.n	4018e8 <__sfvwrite_r+0x38>
  40191a:	2000      	movs	r0, #0
  40191c:	b005      	add	sp, #20
  40191e:	e8bd 8ff0 	ldmia.w	sp!, {r4, r5, r6, r7, r8, r9, sl, fp, pc}
  401922:	4648      	mov	r0, r9
  401924:	4621      	mov	r1, r4
  401926:	f7ff fbcb 	bl	4010c0 <__swsetup_r>
  40192a:	89a3      	ldrh	r3, [r4, #12]
  40192c:	2800      	cmp	r0, #0
  40192e:	d0d1      	beq.n	4018d4 <__sfvwrite_r+0x24>
  401930:	f043 0340 	orr.w	r3, r3, #64	; 0x40
  401934:	f04f 30ff 	mov.w	r0, #4294967295
  401938:	81a3      	strh	r3, [r4, #12]
  40193a:	2309      	movs	r3, #9
  40193c:	f8c9 3000 	str.w	r3, [r9]
  401940:	e7ec      	b.n	40191c <__sfvwrite_r+0x6c>
  401942:	f8d5 a000 	ldr.w	sl, [r5]
  401946:	3508      	adds	r5, #8
  401948:	f855 7c04 	ldr.w	r7, [r5, #-4]
  40194c:	e7cc      	b.n	4018e8 <__sfvwrite_r+0x38>
  40194e:	f013 0a01 	ands.w	sl, r3, #1
  401952:	d14c      	bne.n	4019ee <__sfvwrite_r+0x13e>
  401954:	4656      	mov	r6, sl
  401956:	2e00      	cmp	r6, #0
  401958:	d02f      	beq.n	4019ba <__sfvwrite_r+0x10a>
  40195a:	f403 7200 	and.w	r2, r3, #512	; 0x200
  40195e:	68a7      	ldr	r7, [r4, #8]
  401960:	4619      	mov	r1, r3
  401962:	b212      	sxth	r2, r2
  401964:	2a00      	cmp	r2, #0
  401966:	d07e      	beq.n	401a66 <__sfvwrite_r+0x1b6>
  401968:	42be      	cmp	r6, r7
  40196a:	46bc      	mov	ip, r7
  40196c:	f0c0 80ac 	bcc.w	401ac8 <__sfvwrite_r+0x218>
  401970:	f401 6190 	and.w	r1, r1, #1152	; 0x480
  401974:	2900      	cmp	r1, #0
  401976:	f040 80c8 	bne.w	401b0a <__sfvwrite_r+0x25a>
  40197a:	6820      	ldr	r0, [r4, #0]
  40197c:	46b3      	mov	fp, r6
  40197e:	9703      	str	r7, [sp, #12]
  401980:	4637      	mov	r7, r6
  401982:	4662      	mov	r2, ip
  401984:	4651      	mov	r1, sl
  401986:	f8cd c004 	str.w	ip, [sp, #4]
  40198a:	f000 fe05 	bl	402598 <memmove>
  40198e:	68a1      	ldr	r1, [r4, #8]
  401990:	6822      	ldr	r2, [r4, #0]
  401992:	f8dd c004 	ldr.w	ip, [sp, #4]
  401996:	9b03      	ldr	r3, [sp, #12]
  401998:	4462      	add	r2, ip
  40199a:	6022      	str	r2, [r4, #0]
  40199c:	1ac9      	subs	r1, r1, r3
  40199e:	60a1      	str	r1, [r4, #8]
  4019a0:	f8d8 2008 	ldr.w	r2, [r8, #8]
  4019a4:	44da      	add	sl, fp
  4019a6:	ebcb 0606 	rsb	r6, fp, r6
  4019aa:	1bd7      	subs	r7, r2, r7
  4019ac:	f8c8 7008 	str.w	r7, [r8, #8]
  4019b0:	2f00      	cmp	r7, #0
  4019b2:	d0b2      	beq.n	40191a <__sfvwrite_r+0x6a>
  4019b4:	89a3      	ldrh	r3, [r4, #12]
  4019b6:	2e00      	cmp	r6, #0
  4019b8:	d1cf      	bne.n	40195a <__sfvwrite_r+0xaa>
  4019ba:	f8d5 a000 	ldr.w	sl, [r5]
  4019be:	3508      	adds	r5, #8
  4019c0:	f855 6c04 	ldr.w	r6, [r5, #-4]
  4019c4:	e7c7      	b.n	401956 <__sfvwrite_r+0xa6>
  4019c6:	f000 feb7 	bl	402738 <_realloc_r>
  4019ca:	4603      	mov	r3, r0
  4019cc:	2800      	cmp	r0, #0
  4019ce:	f040 80c8 	bne.w	401b62 <__sfvwrite_r+0x2b2>
  4019d2:	4648      	mov	r0, r9
  4019d4:	6921      	ldr	r1, [r4, #16]
  4019d6:	f7ff fea1 	bl	40171c <_free_r>
  4019da:	230c      	movs	r3, #12
  4019dc:	f8c9 3000 	str.w	r3, [r9]
  4019e0:	89a3      	ldrh	r3, [r4, #12]
  4019e2:	f04f 30ff 	mov.w	r0, #4294967295
  4019e6:	f043 0340 	orr.w	r3, r3, #64	; 0x40
  4019ea:	81a3      	strh	r3, [r4, #12]
  4019ec:	e796      	b.n	40191c <__sfvwrite_r+0x6c>
  4019ee:	4692      	mov	sl, r2
  4019f0:	4694      	mov	ip, r2
  4019f2:	4693      	mov	fp, r2
  4019f4:	4617      	mov	r7, r2
  4019f6:	2f00      	cmp	r7, #0
  4019f8:	d02e      	beq.n	401a58 <__sfvwrite_r+0x1a8>
  4019fa:	f1bc 0f00 	cmp.w	ip, #0
  4019fe:	d076      	beq.n	401aee <__sfvwrite_r+0x23e>
  401a00:	6820      	ldr	r0, [r4, #0]
  401a02:	45ba      	cmp	sl, r7
  401a04:	bf34      	ite	cc
  401a06:	4653      	movcc	r3, sl
  401a08:	463b      	movcs	r3, r7
  401a0a:	6922      	ldr	r2, [r4, #16]
  401a0c:	68a6      	ldr	r6, [r4, #8]
  401a0e:	4290      	cmp	r0, r2
  401a10:	f8d4 e014 	ldr.w	lr, [r4, #20]
  401a14:	d903      	bls.n	401a1e <__sfvwrite_r+0x16e>
  401a16:	4476      	add	r6, lr
  401a18:	42b3      	cmp	r3, r6
  401a1a:	f300 80af 	bgt.w	401b7c <__sfvwrite_r+0x2cc>
  401a1e:	4573      	cmp	r3, lr
  401a20:	db35      	blt.n	401a8e <__sfvwrite_r+0x1de>
  401a22:	6aa6      	ldr	r6, [r4, #40]	; 0x28
  401a24:	4648      	mov	r0, r9
  401a26:	6a21      	ldr	r1, [r4, #32]
  401a28:	465a      	mov	r2, fp
  401a2a:	f8cd c004 	str.w	ip, [sp, #4]
  401a2e:	4673      	mov	r3, lr
  401a30:	47b0      	blx	r6
  401a32:	f8dd c004 	ldr.w	ip, [sp, #4]
  401a36:	1e06      	subs	r6, r0, #0
  401a38:	ddd2      	ble.n	4019e0 <__sfvwrite_r+0x130>
  401a3a:	ebba 0a06 	subs.w	sl, sl, r6
  401a3e:	d03b      	beq.n	401ab8 <__sfvwrite_r+0x208>
  401a40:	f8d8 3008 	ldr.w	r3, [r8, #8]
  401a44:	44b3      	add	fp, r6
  401a46:	1bbf      	subs	r7, r7, r6
  401a48:	1b9e      	subs	r6, r3, r6
  401a4a:	f8c8 6008 	str.w	r6, [r8, #8]
  401a4e:	2e00      	cmp	r6, #0
  401a50:	f43f af63 	beq.w	40191a <__sfvwrite_r+0x6a>
  401a54:	2f00      	cmp	r7, #0
  401a56:	d1d0      	bne.n	4019fa <__sfvwrite_r+0x14a>
  401a58:	f8d5 b000 	ldr.w	fp, [r5]
  401a5c:	f04f 0c00 	mov.w	ip, #0
  401a60:	686f      	ldr	r7, [r5, #4]
  401a62:	3508      	adds	r5, #8
  401a64:	e7c7      	b.n	4019f6 <__sfvwrite_r+0x146>
  401a66:	6820      	ldr	r0, [r4, #0]
  401a68:	6923      	ldr	r3, [r4, #16]
  401a6a:	4298      	cmp	r0, r3
  401a6c:	d903      	bls.n	401a76 <__sfvwrite_r+0x1c6>
  401a6e:	42be      	cmp	r6, r7
  401a70:	46bb      	mov	fp, r7
  401a72:	f200 8096 	bhi.w	401ba2 <__sfvwrite_r+0x2f2>
  401a76:	6963      	ldr	r3, [r4, #20]
  401a78:	429e      	cmp	r6, r3
  401a7a:	d32b      	bcc.n	401ad4 <__sfvwrite_r+0x224>
  401a7c:	6aa7      	ldr	r7, [r4, #40]	; 0x28
  401a7e:	4648      	mov	r0, r9
  401a80:	6a21      	ldr	r1, [r4, #32]
  401a82:	4652      	mov	r2, sl
  401a84:	47b8      	blx	r7
  401a86:	1e07      	subs	r7, r0, #0
  401a88:	ddaa      	ble.n	4019e0 <__sfvwrite_r+0x130>
  401a8a:	46bb      	mov	fp, r7
  401a8c:	e788      	b.n	4019a0 <__sfvwrite_r+0xf0>
  401a8e:	461a      	mov	r2, r3
  401a90:	461e      	mov	r6, r3
  401a92:	4659      	mov	r1, fp
  401a94:	9302      	str	r3, [sp, #8]
  401a96:	f8cd c004 	str.w	ip, [sp, #4]
  401a9a:	f000 fd7d 	bl	402598 <memmove>
  401a9e:	9b02      	ldr	r3, [sp, #8]
  401aa0:	ebba 0a06 	subs.w	sl, sl, r6
  401aa4:	68a1      	ldr	r1, [r4, #8]
  401aa6:	6822      	ldr	r2, [r4, #0]
  401aa8:	ebc3 0101 	rsb	r1, r3, r1
  401aac:	f8dd c004 	ldr.w	ip, [sp, #4]
  401ab0:	4413      	add	r3, r2
  401ab2:	60a1      	str	r1, [r4, #8]
  401ab4:	6023      	str	r3, [r4, #0]
  401ab6:	d1c3      	bne.n	401a40 <__sfvwrite_r+0x190>
  401ab8:	4648      	mov	r0, r9
  401aba:	4621      	mov	r1, r4
  401abc:	f7ff fb82 	bl	4011c4 <_fflush_r>
  401ac0:	2800      	cmp	r0, #0
  401ac2:	d18d      	bne.n	4019e0 <__sfvwrite_r+0x130>
  401ac4:	46d4      	mov	ip, sl
  401ac6:	e7bb      	b.n	401a40 <__sfvwrite_r+0x190>
  401ac8:	6820      	ldr	r0, [r4, #0]
  401aca:	46b3      	mov	fp, r6
  401acc:	9603      	str	r6, [sp, #12]
  401ace:	4637      	mov	r7, r6
  401ad0:	46b4      	mov	ip, r6
  401ad2:	e756      	b.n	401982 <__sfvwrite_r+0xd2>
  401ad4:	4651      	mov	r1, sl
  401ad6:	4632      	mov	r2, r6
  401ad8:	f000 fd5e 	bl	402598 <memmove>
  401adc:	68a1      	ldr	r1, [r4, #8]
  401ade:	6822      	ldr	r2, [r4, #0]
  401ae0:	4637      	mov	r7, r6
  401ae2:	1b89      	subs	r1, r1, r6
  401ae4:	46b3      	mov	fp, r6
  401ae6:	1992      	adds	r2, r2, r6
  401ae8:	60a1      	str	r1, [r4, #8]
  401aea:	6022      	str	r2, [r4, #0]
  401aec:	e758      	b.n	4019a0 <__sfvwrite_r+0xf0>
  401aee:	4658      	mov	r0, fp
  401af0:	210a      	movs	r1, #10
  401af2:	463a      	mov	r2, r7
  401af4:	f000 fc4c 	bl	402390 <memchr>
  401af8:	2800      	cmp	r0, #0
  401afa:	d061      	beq.n	401bc0 <__sfvwrite_r+0x310>
  401afc:	f100 0a01 	add.w	sl, r0, #1
  401b00:	f04f 0c01 	mov.w	ip, #1
  401b04:	ebcb 0a0a 	rsb	sl, fp, sl
  401b08:	e77a      	b.n	401a00 <__sfvwrite_r+0x150>
  401b0a:	6967      	ldr	r7, [r4, #20]
  401b0c:	f403 6380 	and.w	r3, r3, #1024	; 0x400
  401b10:	6822      	ldr	r2, [r4, #0]
  401b12:	6921      	ldr	r1, [r4, #16]
  401b14:	b21b      	sxth	r3, r3
  401b16:	eb07 0747 	add.w	r7, r7, r7, lsl #1
  401b1a:	ebc1 0b02 	rsb	fp, r1, r2
  401b1e:	eb07 77d7 	add.w	r7, r7, r7, lsr #31
  401b22:	f10b 0001 	add.w	r0, fp, #1
  401b26:	1980      	adds	r0, r0, r6
  401b28:	107f      	asrs	r7, r7, #1
  401b2a:	4287      	cmp	r7, r0
  401b2c:	463a      	mov	r2, r7
  401b2e:	bf38      	it	cc
  401b30:	4607      	movcc	r7, r0
  401b32:	4648      	mov	r0, r9
  401b34:	bf38      	it	cc
  401b36:	463a      	movcc	r2, r7
  401b38:	2b00      	cmp	r3, #0
  401b3a:	f43f af44 	beq.w	4019c6 <__sfvwrite_r+0x116>
  401b3e:	4611      	mov	r1, r2
  401b40:	f000 f95a 	bl	401df8 <_malloc_r>
  401b44:	2800      	cmp	r0, #0
  401b46:	f43f af48 	beq.w	4019da <__sfvwrite_r+0x12a>
  401b4a:	6921      	ldr	r1, [r4, #16]
  401b4c:	465a      	mov	r2, fp
  401b4e:	9002      	str	r0, [sp, #8]
  401b50:	f000 fc68 	bl	402424 <memcpy>
  401b54:	89a2      	ldrh	r2, [r4, #12]
  401b56:	9b02      	ldr	r3, [sp, #8]
  401b58:	f422 6290 	bic.w	r2, r2, #1152	; 0x480
  401b5c:	f042 0280 	orr.w	r2, r2, #128	; 0x80
  401b60:	81a2      	strh	r2, [r4, #12]
  401b62:	ebcb 0207 	rsb	r2, fp, r7
  401b66:	eb03 000b 	add.w	r0, r3, fp
  401b6a:	6167      	str	r7, [r4, #20]
  401b6c:	46b3      	mov	fp, r6
  401b6e:	6123      	str	r3, [r4, #16]
  401b70:	4637      	mov	r7, r6
  401b72:	9603      	str	r6, [sp, #12]
  401b74:	46b4      	mov	ip, r6
  401b76:	6020      	str	r0, [r4, #0]
  401b78:	60a2      	str	r2, [r4, #8]
  401b7a:	e702      	b.n	401982 <__sfvwrite_r+0xd2>
  401b7c:	4659      	mov	r1, fp
  401b7e:	4632      	mov	r2, r6
  401b80:	f8cd c004 	str.w	ip, [sp, #4]
  401b84:	f000 fd08 	bl	402598 <memmove>
  401b88:	6823      	ldr	r3, [r4, #0]
  401b8a:	4648      	mov	r0, r9
  401b8c:	4621      	mov	r1, r4
  401b8e:	199b      	adds	r3, r3, r6
  401b90:	6023      	str	r3, [r4, #0]
  401b92:	f7ff fb17 	bl	4011c4 <_fflush_r>
  401b96:	f8dd c004 	ldr.w	ip, [sp, #4]
  401b9a:	2800      	cmp	r0, #0
  401b9c:	f43f af4d 	beq.w	401a3a <__sfvwrite_r+0x18a>
  401ba0:	e71e      	b.n	4019e0 <__sfvwrite_r+0x130>
  401ba2:	4651      	mov	r1, sl
  401ba4:	463a      	mov	r2, r7
  401ba6:	f000 fcf7 	bl	402598 <memmove>
  401baa:	6822      	ldr	r2, [r4, #0]
  401bac:	4648      	mov	r0, r9
  401bae:	4621      	mov	r1, r4
  401bb0:	19d2      	adds	r2, r2, r7
  401bb2:	6022      	str	r2, [r4, #0]
  401bb4:	f7ff fb06 	bl	4011c4 <_fflush_r>
  401bb8:	2800      	cmp	r0, #0
  401bba:	f43f aef1 	beq.w	4019a0 <__sfvwrite_r+0xf0>
  401bbe:	e70f      	b.n	4019e0 <__sfvwrite_r+0x130>
  401bc0:	f107 0a01 	add.w	sl, r7, #1
  401bc4:	f04f 0c01 	mov.w	ip, #1
  401bc8:	e71a      	b.n	401a00 <__sfvwrite_r+0x150>
  401bca:	bf00      	nop

00401bcc <_fwalk>:
  401bcc:	e92d 41f0 	stmdb	sp!, {r4, r5, r6, r7, r8, lr}
  401bd0:	4606      	mov	r6, r0
  401bd2:	4688      	mov	r8, r1
  401bd4:	f7ff fc9a 	bl	40150c <__sfp_lock_acquire>
  401bd8:	36d8      	adds	r6, #216	; 0xd8
  401bda:	d01a      	beq.n	401c12 <_fwalk+0x46>
  401bdc:	2700      	movs	r7, #0
  401bde:	6875      	ldr	r5, [r6, #4]
  401be0:	68b4      	ldr	r4, [r6, #8]
  401be2:	3d01      	subs	r5, #1
  401be4:	d40d      	bmi.n	401c02 <_fwalk+0x36>
  401be6:	f9b4 300c 	ldrsh.w	r3, [r4, #12]
  401bea:	3d01      	subs	r5, #1
  401bec:	b133      	cbz	r3, 401bfc <_fwalk+0x30>
  401bee:	f9b4 300e 	ldrsh.w	r3, [r4, #14]
  401bf2:	4620      	mov	r0, r4
  401bf4:	3301      	adds	r3, #1
  401bf6:	d001      	beq.n	401bfc <_fwalk+0x30>
  401bf8:	47c0      	blx	r8
  401bfa:	4307      	orrs	r7, r0
  401bfc:	3468      	adds	r4, #104	; 0x68
  401bfe:	1c6b      	adds	r3, r5, #1
  401c00:	d1f1      	bne.n	401be6 <_fwalk+0x1a>
  401c02:	6836      	ldr	r6, [r6, #0]
  401c04:	2e00      	cmp	r6, #0
  401c06:	d1ea      	bne.n	401bde <_fwalk+0x12>
  401c08:	f7ff fc82 	bl	401510 <__sfp_lock_release>
  401c0c:	4638      	mov	r0, r7
  401c0e:	e8bd 81f0 	ldmia.w	sp!, {r4, r5, r6, r7, r8, pc}
  401c12:	4637      	mov	r7, r6
  401c14:	e7f8      	b.n	401c08 <_fwalk+0x3c>
  401c16:	bf00      	nop

00401c18 <_fwalk_reent>:
  401c18:	e92d 43f8 	stmdb	sp!, {r3, r4, r5, r6, r7, r8, r9, lr}
  401c1c:	4607      	mov	r7, r0
  401c1e:	4688      	mov	r8, r1
  401c20:	f7ff fc74 	bl	40150c <__sfp_lock_acquire>
  401c24:	f117 06d8 	adds.w	r6, r7, #216	; 0xd8
  401c28:	d01d      	beq.n	401c66 <_fwalk_reent+0x4e>
  401c2a:	f04f 0900 	mov.w	r9, #0
  401c2e:	6875      	ldr	r5, [r6, #4]
  401c30:	68b4      	ldr	r4, [r6, #8]
  401c32:	3d01      	subs	r5, #1
  401c34:	d40f      	bmi.n	401c56 <_fwalk_reent+0x3e>
  401c36:	f9b4 300c 	ldrsh.w	r3, [r4, #12]
  401c3a:	3d01      	subs	r5, #1
  401c3c:	b143      	cbz	r3, 401c50 <_fwalk_reent+0x38>
  401c3e:	f9b4 300e 	ldrsh.w	r3, [r4, #14]
  401c42:	4621      	mov	r1, r4
  401c44:	4638      	mov	r0, r7
  401c46:	3301      	adds	r3, #1
  401c48:	d002      	beq.n	401c50 <_fwalk_reent+0x38>
  401c4a:	47c0      	blx	r8
  401c4c:	ea49 0900 	orr.w	r9, r9, r0
  401c50:	3468      	adds	r4, #104	; 0x68
  401c52:	1c6a      	adds	r2, r5, #1
  401c54:	d1ef      	bne.n	401c36 <_fwalk_reent+0x1e>
  401c56:	6836      	ldr	r6, [r6, #0]
  401c58:	2e00      	cmp	r6, #0
  401c5a:	d1e8      	bne.n	401c2e <_fwalk_reent+0x16>
  401c5c:	f7ff fc58 	bl	401510 <__sfp_lock_release>
  401c60:	4648      	mov	r0, r9
  401c62:	e8bd 83f8 	ldmia.w	sp!, {r3, r4, r5, r6, r7, r8, r9, pc}
  401c66:	46b1      	mov	r9, r6
  401c68:	e7f8      	b.n	401c5c <_fwalk_reent+0x44>
  401c6a:	bf00      	nop

00401c6c <_setlocale_r>:
  401c6c:	b510      	push	{r4, lr}
  401c6e:	4614      	mov	r4, r2
  401c70:	b13a      	cbz	r2, 401c82 <_setlocale_r+0x16>
  401c72:	f247 315c 	movw	r1, #29532	; 0x735c
  401c76:	4610      	mov	r0, r2
  401c78:	f2c0 0140 	movt	r1, #64	; 0x40
  401c7c:	f000 ff9c 	bl	402bb8 <strcmp>
  401c80:	b920      	cbnz	r0, 401c8c <_setlocale_r+0x20>
  401c82:	f247 3058 	movw	r0, #29528	; 0x7358
  401c86:	f2c0 0040 	movt	r0, #64	; 0x40
  401c8a:	bd10      	pop	{r4, pc}
  401c8c:	f247 3158 	movw	r1, #29528	; 0x7358
  401c90:	4620      	mov	r0, r4
  401c92:	f2c0 0140 	movt	r1, #64	; 0x40
  401c96:	f000 ff8f 	bl	402bb8 <strcmp>
  401c9a:	2800      	cmp	r0, #0
  401c9c:	d0f1      	beq.n	401c82 <_setlocale_r+0x16>
  401c9e:	f247 21d4 	movw	r1, #29396	; 0x72d4
  401ca2:	4620      	mov	r0, r4
  401ca4:	f2c0 0140 	movt	r1, #64	; 0x40
  401ca8:	f000 ff86 	bl	402bb8 <strcmp>
  401cac:	f247 3358 	movw	r3, #29528	; 0x7358
  401cb0:	f2c0 0340 	movt	r3, #64	; 0x40
  401cb4:	2800      	cmp	r0, #0
  401cb6:	bf0c      	ite	eq
  401cb8:	4618      	moveq	r0, r3
  401cba:	2000      	movne	r0, #0
  401cbc:	bd10      	pop	{r4, pc}
  401cbe:	bf00      	nop

00401cc0 <__locale_charset>:
  401cc0:	f240 00f8 	movw	r0, #248	; 0xf8
  401cc4:	f2c2 0000 	movt	r0, #8192	; 0x2000
  401cc8:	4770      	bx	lr
  401cca:	bf00      	nop

00401ccc <__locale_mb_cur_max>:
  401ccc:	f240 03f8 	movw	r3, #248	; 0xf8
  401cd0:	f2c2 0300 	movt	r3, #8192	; 0x2000
  401cd4:	6a18      	ldr	r0, [r3, #32]
  401cd6:	4770      	bx	lr

00401cd8 <__locale_msgcharset>:
  401cd8:	4800      	ldr	r0, [pc, #0]	; (401cdc <__locale_msgcharset+0x4>)
  401cda:	4770      	bx	lr
  401cdc:	2000011c 	.word	0x2000011c

00401ce0 <__locale_cjk_lang>:
  401ce0:	2000      	movs	r0, #0
  401ce2:	4770      	bx	lr

00401ce4 <_localeconv_r>:
  401ce4:	4800      	ldr	r0, [pc, #0]	; (401ce8 <_localeconv_r+0x4>)
  401ce6:	4770      	bx	lr
  401ce8:	2000013c 	.word	0x2000013c

00401cec <setlocale>:
  401cec:	f240 0304 	movw	r3, #4
  401cf0:	460a      	mov	r2, r1
  401cf2:	f2c2 0300 	movt	r3, #8192	; 0x2000
  401cf6:	4601      	mov	r1, r0
  401cf8:	6818      	ldr	r0, [r3, #0]
  401cfa:	f7ff bfb7 	b.w	401c6c <_setlocale_r>
  401cfe:	bf00      	nop

00401d00 <localeconv>:
  401d00:	4800      	ldr	r0, [pc, #0]	; (401d04 <localeconv+0x4>)
  401d02:	4770      	bx	lr
  401d04:	2000013c 	.word	0x2000013c

00401d08 <__smakebuf_r>:
  401d08:	898b      	ldrh	r3, [r1, #12]
  401d0a:	b5f0      	push	{r4, r5, r6, r7, lr}
  401d0c:	f003 0202 	and.w	r2, r3, #2
  401d10:	b091      	sub	sp, #68	; 0x44
  401d12:	460c      	mov	r4, r1
  401d14:	b212      	sxth	r2, r2
  401d16:	4605      	mov	r5, r0
  401d18:	2a00      	cmp	r2, #0
  401d1a:	d13b      	bne.n	401d94 <__smakebuf_r+0x8c>
  401d1c:	f9b1 100e 	ldrsh.w	r1, [r1, #14]
  401d20:	2900      	cmp	r1, #0
  401d22:	db16      	blt.n	401d52 <__smakebuf_r+0x4a>
  401d24:	aa01      	add	r2, sp, #4
  401d26:	f001 f9f5 	bl	403114 <_fstat_r>
  401d2a:	2800      	cmp	r0, #0
  401d2c:	db10      	blt.n	401d50 <__smakebuf_r+0x48>
  401d2e:	9b02      	ldr	r3, [sp, #8]
  401d30:	f403 4370 	and.w	r3, r3, #61440	; 0xf000
  401d34:	f5b3 5200 	subs.w	r2, r3, #8192	; 0x2000
  401d38:	4257      	negs	r7, r2
  401d3a:	4157      	adcs	r7, r2
  401d3c:	f5b3 4f00 	cmp.w	r3, #32768	; 0x8000
  401d40:	d02f      	beq.n	401da2 <__smakebuf_r+0x9a>
  401d42:	89a3      	ldrh	r3, [r4, #12]
  401d44:	f44f 6680 	mov.w	r6, #1024	; 0x400
  401d48:	f443 6300 	orr.w	r3, r3, #2048	; 0x800
  401d4c:	81a3      	strh	r3, [r4, #12]
  401d4e:	e00c      	b.n	401d6a <__smakebuf_r+0x62>
  401d50:	89a3      	ldrh	r3, [r4, #12]
  401d52:	f003 0680 	and.w	r6, r3, #128	; 0x80
  401d56:	2700      	movs	r7, #0
  401d58:	f443 6300 	orr.w	r3, r3, #2048	; 0x800
  401d5c:	81a3      	strh	r3, [r4, #12]
  401d5e:	b236      	sxth	r6, r6
  401d60:	42be      	cmp	r6, r7
  401d62:	bf0c      	ite	eq
  401d64:	f44f 6680 	moveq.w	r6, #1024	; 0x400
  401d68:	2640      	movne	r6, #64	; 0x40
  401d6a:	4628      	mov	r0, r5
  401d6c:	4631      	mov	r1, r6
  401d6e:	f000 f843 	bl	401df8 <_malloc_r>
  401d72:	2800      	cmp	r0, #0
  401d74:	d030      	beq.n	401dd8 <__smakebuf_r+0xd0>
  401d76:	89a2      	ldrh	r2, [r4, #12]
  401d78:	f241 338d 	movw	r3, #5005	; 0x138d
  401d7c:	f2c0 0340 	movt	r3, #64	; 0x40
  401d80:	62ab      	str	r3, [r5, #40]	; 0x28
  401d82:	f042 0380 	orr.w	r3, r2, #128	; 0x80
  401d86:	6020      	str	r0, [r4, #0]
  401d88:	81a3      	strh	r3, [r4, #12]
  401d8a:	6120      	str	r0, [r4, #16]
  401d8c:	6166      	str	r6, [r4, #20]
  401d8e:	b9bf      	cbnz	r7, 401dc0 <__smakebuf_r+0xb8>
  401d90:	b011      	add	sp, #68	; 0x44
  401d92:	bdf0      	pop	{r4, r5, r6, r7, pc}
  401d94:	f101 0347 	add.w	r3, r1, #71	; 0x47
  401d98:	600b      	str	r3, [r1, #0]
  401d9a:	610b      	str	r3, [r1, #16]
  401d9c:	2301      	movs	r3, #1
  401d9e:	614b      	str	r3, [r1, #20]
  401da0:	e7f6      	b.n	401d90 <__smakebuf_r+0x88>
  401da2:	f642 3391 	movw	r3, #11153	; 0x2b91
  401da6:	6ae2      	ldr	r2, [r4, #44]	; 0x2c
  401da8:	f2c0 0340 	movt	r3, #64	; 0x40
  401dac:	429a      	cmp	r2, r3
  401dae:	d1c8      	bne.n	401d42 <__smakebuf_r+0x3a>
  401db0:	89a2      	ldrh	r2, [r4, #12]
  401db2:	f44f 6380 	mov.w	r3, #1024	; 0x400
  401db6:	461e      	mov	r6, r3
  401db8:	6523      	str	r3, [r4, #80]	; 0x50
  401dba:	4313      	orrs	r3, r2
  401dbc:	81a3      	strh	r3, [r4, #12]
  401dbe:	e7d4      	b.n	401d6a <__smakebuf_r+0x62>
  401dc0:	4628      	mov	r0, r5
  401dc2:	f9b4 100e 	ldrsh.w	r1, [r4, #14]
  401dc6:	f001 f9b9 	bl	40313c <_isatty_r>
  401dca:	2800      	cmp	r0, #0
  401dcc:	d0e0      	beq.n	401d90 <__smakebuf_r+0x88>
  401dce:	89a3      	ldrh	r3, [r4, #12]
  401dd0:	f043 0301 	orr.w	r3, r3, #1
  401dd4:	81a3      	strh	r3, [r4, #12]
  401dd6:	e7db      	b.n	401d90 <__smakebuf_r+0x88>
  401dd8:	89a3      	ldrh	r3, [r4, #12]
  401dda:	f403 7200 	and.w	r2, r3, #512	; 0x200
  401dde:	b212      	sxth	r2, r2
  401de0:	2a00      	cmp	r2, #0
  401de2:	d1d5      	bne.n	401d90 <__smakebuf_r+0x88>
  401de4:	f104 0247 	add.w	r2, r4, #71	; 0x47
  401de8:	f043 0302 	orr.w	r3, r3, #2
  401dec:	6022      	str	r2, [r4, #0]
  401dee:	81a3      	strh	r3, [r4, #12]
  401df0:	2301      	movs	r3, #1
  401df2:	6122      	str	r2, [r4, #16]
  401df4:	6163      	str	r3, [r4, #20]
  401df6:	e7cb      	b.n	401d90 <__smakebuf_r+0x88>

00401df8 <_malloc_r>:
  401df8:	e92d 4ff0 	stmdb	sp!, {r4, r5, r6, r7, r8, r9, sl, fp, lr}
  401dfc:	f101 040b 	add.w	r4, r1, #11
  401e00:	2c16      	cmp	r4, #22
  401e02:	b083      	sub	sp, #12
  401e04:	4607      	mov	r7, r0
  401e06:	d930      	bls.n	401e6a <_malloc_r+0x72>
  401e08:	f024 0407 	bic.w	r4, r4, #7
  401e0c:	0fe3      	lsrs	r3, r4, #31
  401e0e:	428c      	cmp	r4, r1
  401e10:	bf2c      	ite	cs
  401e12:	4619      	movcs	r1, r3
  401e14:	f043 0101 	orrcc.w	r1, r3, #1
  401e18:	2900      	cmp	r1, #0
  401e1a:	d12f      	bne.n	401e7c <_malloc_r+0x84>
  401e1c:	4638      	mov	r0, r7
  401e1e:	f000 fc87 	bl	402730 <__malloc_lock>
  401e22:	f5b4 7ffc 	cmp.w	r4, #504	; 0x1f8
  401e26:	d22e      	bcs.n	401e86 <_malloc_r+0x8e>
  401e28:	ea4f 0cd4 	mov.w	ip, r4, lsr #3
  401e2c:	f240 1674 	movw	r6, #372	; 0x174
  401e30:	f2c2 0600 	movt	r6, #8192	; 0x2000
  401e34:	eb06 02cc 	add.w	r2, r6, ip, lsl #3
  401e38:	68d3      	ldr	r3, [r2, #12]
  401e3a:	4293      	cmp	r3, r2
  401e3c:	f000 8211 	beq.w	402262 <_malloc_r+0x46a>
  401e40:	6859      	ldr	r1, [r3, #4]
  401e42:	f103 0808 	add.w	r8, r3, #8
  401e46:	68da      	ldr	r2, [r3, #12]
  401e48:	4638      	mov	r0, r7
  401e4a:	f021 0403 	bic.w	r4, r1, #3
  401e4e:	6899      	ldr	r1, [r3, #8]
  401e50:	191b      	adds	r3, r3, r4
  401e52:	685c      	ldr	r4, [r3, #4]
  401e54:	60ca      	str	r2, [r1, #12]
  401e56:	f044 0401 	orr.w	r4, r4, #1
  401e5a:	6091      	str	r1, [r2, #8]
  401e5c:	605c      	str	r4, [r3, #4]
  401e5e:	f000 fc69 	bl	402734 <__malloc_unlock>
  401e62:	4640      	mov	r0, r8
  401e64:	b003      	add	sp, #12
  401e66:	e8bd 8ff0 	ldmia.w	sp!, {r4, r5, r6, r7, r8, r9, sl, fp, pc}
  401e6a:	2300      	movs	r3, #0
  401e6c:	2410      	movs	r4, #16
  401e6e:	428c      	cmp	r4, r1
  401e70:	bf2c      	ite	cs
  401e72:	4619      	movcs	r1, r3
  401e74:	f043 0101 	orrcc.w	r1, r3, #1
  401e78:	2900      	cmp	r1, #0
  401e7a:	d0cf      	beq.n	401e1c <_malloc_r+0x24>
  401e7c:	230c      	movs	r3, #12
  401e7e:	f04f 0800 	mov.w	r8, #0
  401e82:	603b      	str	r3, [r7, #0]
  401e84:	e7ed      	b.n	401e62 <_malloc_r+0x6a>
  401e86:	ea5f 2c54 	movs.w	ip, r4, lsr #9
  401e8a:	bf04      	itt	eq
  401e8c:	ea4f 0cd4 	moveq.w	ip, r4, lsr #3
  401e90:	ea4f 054c 	moveq.w	r5, ip, lsl #1
  401e94:	f040 808f 	bne.w	401fb6 <_malloc_r+0x1be>
  401e98:	f240 1674 	movw	r6, #372	; 0x174
  401e9c:	f2c2 0600 	movt	r6, #8192	; 0x2000
  401ea0:	eb06 0585 	add.w	r5, r6, r5, lsl #2
  401ea4:	68eb      	ldr	r3, [r5, #12]
  401ea6:	429d      	cmp	r5, r3
  401ea8:	d106      	bne.n	401eb8 <_malloc_r+0xc0>
  401eaa:	e00d      	b.n	401ec8 <_malloc_r+0xd0>
  401eac:	2a00      	cmp	r2, #0
  401eae:	f280 8155 	bge.w	40215c <_malloc_r+0x364>
  401eb2:	68db      	ldr	r3, [r3, #12]
  401eb4:	429d      	cmp	r5, r3
  401eb6:	d007      	beq.n	401ec8 <_malloc_r+0xd0>
  401eb8:	6859      	ldr	r1, [r3, #4]
  401eba:	f021 0103 	bic.w	r1, r1, #3
  401ebe:	1b0a      	subs	r2, r1, r4
  401ec0:	2a0f      	cmp	r2, #15
  401ec2:	ddf3      	ble.n	401eac <_malloc_r+0xb4>
  401ec4:	f10c 3cff 	add.w	ip, ip, #4294967295
  401ec8:	f10c 0c01 	add.w	ip, ip, #1
  401ecc:	f240 1274 	movw	r2, #372	; 0x174
  401ed0:	6933      	ldr	r3, [r6, #16]
  401ed2:	f2c2 0200 	movt	r2, #8192	; 0x2000
  401ed6:	f102 0e08 	add.w	lr, r2, #8
  401eda:	4573      	cmp	r3, lr
  401edc:	bf08      	it	eq
  401ede:	f8d2 9004 	ldreq.w	r9, [r2, #4]
  401ee2:	d022      	beq.n	401f2a <_malloc_r+0x132>
  401ee4:	6858      	ldr	r0, [r3, #4]
  401ee6:	f020 0003 	bic.w	r0, r0, #3
  401eea:	1b01      	subs	r1, r0, r4
  401eec:	290f      	cmp	r1, #15
  401eee:	f300 8184 	bgt.w	4021fa <_malloc_r+0x402>
  401ef2:	2900      	cmp	r1, #0
  401ef4:	f8c2 e014 	str.w	lr, [r2, #20]
  401ef8:	f8c2 e010 	str.w	lr, [r2, #16]
  401efc:	da66      	bge.n	401fcc <_malloc_r+0x1d4>
  401efe:	f5b0 7f00 	cmp.w	r0, #512	; 0x200
  401f02:	f080 814e 	bcs.w	4021a2 <_malloc_r+0x3aa>
  401f06:	08c1      	lsrs	r1, r0, #3
  401f08:	f04f 0801 	mov.w	r8, #1
  401f0c:	eb02 00c1 	add.w	r0, r2, r1, lsl #3
  401f10:	1089      	asrs	r1, r1, #2
  401f12:	fa08 f801 	lsl.w	r8, r8, r1
  401f16:	6851      	ldr	r1, [r2, #4]
  401f18:	6885      	ldr	r5, [r0, #8]
  401f1a:	60d8      	str	r0, [r3, #12]
  401f1c:	ea48 0901 	orr.w	r9, r8, r1
  401f20:	f8c2 9004 	str.w	r9, [r2, #4]
  401f24:	609d      	str	r5, [r3, #8]
  401f26:	60eb      	str	r3, [r5, #12]
  401f28:	6083      	str	r3, [r0, #8]
  401f2a:	2201      	movs	r2, #1
  401f2c:	ea4f 03ac 	mov.w	r3, ip, asr #2
  401f30:	fa02 f303 	lsl.w	r3, r2, r3
  401f34:	454b      	cmp	r3, r9
  401f36:	d854      	bhi.n	401fe2 <_malloc_r+0x1ea>
  401f38:	ea19 0f03 	tst.w	r9, r3
  401f3c:	d10d      	bne.n	401f5a <_malloc_r+0x162>
  401f3e:	4093      	lsls	r3, r2
  401f40:	f02c 0c03 	bic.w	ip, ip, #3
  401f44:	ea19 0f03 	tst.w	r9, r3
  401f48:	f10c 0c04 	add.w	ip, ip, #4
  401f4c:	d105      	bne.n	401f5a <_malloc_r+0x162>
  401f4e:	005b      	lsls	r3, r3, #1
  401f50:	f10c 0c04 	add.w	ip, ip, #4
  401f54:	ea19 0f03 	tst.w	r9, r3
  401f58:	d0f9      	beq.n	401f4e <_malloc_r+0x156>
  401f5a:	eb06 09cc 	add.w	r9, r6, ip, lsl #3
  401f5e:	46e0      	mov	r8, ip
  401f60:	4648      	mov	r0, r9
  401f62:	68c2      	ldr	r2, [r0, #12]
  401f64:	4290      	cmp	r0, r2
  401f66:	d107      	bne.n	401f78 <_malloc_r+0x180>
  401f68:	e15b      	b.n	402222 <_malloc_r+0x42a>
  401f6a:	2900      	cmp	r1, #0
  401f6c:	f280 8183 	bge.w	402276 <_malloc_r+0x47e>
  401f70:	68d2      	ldr	r2, [r2, #12]
  401f72:	4290      	cmp	r0, r2
  401f74:	f000 8155 	beq.w	402222 <_malloc_r+0x42a>
  401f78:	6855      	ldr	r5, [r2, #4]
  401f7a:	f025 0503 	bic.w	r5, r5, #3
  401f7e:	1b29      	subs	r1, r5, r4
  401f80:	290f      	cmp	r1, #15
  401f82:	ddf2      	ble.n	401f6a <_malloc_r+0x172>
  401f84:	4690      	mov	r8, r2
  401f86:	1913      	adds	r3, r2, r4
  401f88:	68d5      	ldr	r5, [r2, #12]
  401f8a:	f044 0001 	orr.w	r0, r4, #1
  401f8e:	f858 4f08 	ldr.w	r4, [r8, #8]!
  401f92:	f041 0c01 	orr.w	ip, r1, #1
  401f96:	6050      	str	r0, [r2, #4]
  401f98:	4638      	mov	r0, r7
  401f9a:	f8c3 c004 	str.w	ip, [r3, #4]
  401f9e:	60e5      	str	r5, [r4, #12]
  401fa0:	60ac      	str	r4, [r5, #8]
  401fa2:	6173      	str	r3, [r6, #20]
  401fa4:	6133      	str	r3, [r6, #16]
  401fa6:	f8c3 e00c 	str.w	lr, [r3, #12]
  401faa:	f8c3 e008 	str.w	lr, [r3, #8]
  401fae:	5059      	str	r1, [r3, r1]
  401fb0:	f000 fbc0 	bl	402734 <__malloc_unlock>
  401fb4:	e755      	b.n	401e62 <_malloc_r+0x6a>
  401fb6:	f1bc 0f04 	cmp.w	ip, #4
  401fba:	f200 80de 	bhi.w	40217a <_malloc_r+0x382>
  401fbe:	ea4f 1c94 	mov.w	ip, r4, lsr #6
  401fc2:	f10c 0c38 	add.w	ip, ip, #56	; 0x38
  401fc6:	ea4f 054c 	mov.w	r5, ip, lsl #1
  401fca:	e765      	b.n	401e98 <_malloc_r+0xa0>
  401fcc:	181a      	adds	r2, r3, r0
  401fce:	f103 0808 	add.w	r8, r3, #8
  401fd2:	4638      	mov	r0, r7
  401fd4:	6853      	ldr	r3, [r2, #4]
  401fd6:	f043 0301 	orr.w	r3, r3, #1
  401fda:	6053      	str	r3, [r2, #4]
  401fdc:	f000 fbaa 	bl	402734 <__malloc_unlock>
  401fe0:	e73f      	b.n	401e62 <_malloc_r+0x6a>
  401fe2:	68b5      	ldr	r5, [r6, #8]
  401fe4:	686b      	ldr	r3, [r5, #4]
  401fe6:	f023 0a03 	bic.w	sl, r3, #3
  401fea:	4554      	cmp	r4, sl
  401fec:	d804      	bhi.n	401ff8 <_malloc_r+0x200>
  401fee:	ebc4 030a 	rsb	r3, r4, sl
  401ff2:	2b0f      	cmp	r3, #15
  401ff4:	f300 80a4 	bgt.w	402140 <_malloc_r+0x348>
  401ff8:	f240 59a8 	movw	r9, #1448	; 0x5a8
  401ffc:	f8d6 1408 	ldr.w	r1, [r6, #1032]	; 0x408
  402000:	f2c2 0900 	movt	r9, #8192	; 0x2000
  402004:	eb05 020a 	add.w	r2, r5, sl
  402008:	3101      	adds	r1, #1
  40200a:	f8d9 3000 	ldr.w	r3, [r9]
  40200e:	4423      	add	r3, r4
  402010:	bf08      	it	eq
  402012:	f103 0b10 	addeq.w	fp, r3, #16
  402016:	d006      	beq.n	402026 <_malloc_r+0x22e>
  402018:	f503 5380 	add.w	r3, r3, #4096	; 0x1000
  40201c:	330f      	adds	r3, #15
  40201e:	f423 637f 	bic.w	r3, r3, #4080	; 0xff0
  402022:	f023 0b0f 	bic.w	fp, r3, #15
  402026:	4638      	mov	r0, r7
  402028:	4659      	mov	r1, fp
  40202a:	9201      	str	r2, [sp, #4]
  40202c:	f000 fd6a 	bl	402b04 <_sbrk_r>
  402030:	9a01      	ldr	r2, [sp, #4]
  402032:	1c41      	adds	r1, r0, #1
  402034:	4680      	mov	r8, r0
  402036:	f000 8168 	beq.w	40230a <_malloc_r+0x512>
  40203a:	4282      	cmp	r2, r0
  40203c:	f200 8131 	bhi.w	4022a2 <_malloc_r+0x4aa>
  402040:	f8d9 3004 	ldr.w	r3, [r9, #4]
  402044:	4542      	cmp	r2, r8
  402046:	445b      	add	r3, fp
  402048:	f8c9 3004 	str.w	r3, [r9, #4]
  40204c:	f000 8166 	beq.w	40231c <_malloc_r+0x524>
  402050:	f8d6 1408 	ldr.w	r1, [r6, #1032]	; 0x408
  402054:	f240 1074 	movw	r0, #372	; 0x174
  402058:	f2c2 0000 	movt	r0, #8192	; 0x2000
  40205c:	3101      	adds	r1, #1
  40205e:	bf17      	itett	ne
  402060:	ebc2 0208 	rsbne	r2, r2, r8
  402064:	f8c0 8408 	streq.w	r8, [r0, #1032]	; 0x408
  402068:	189b      	addne	r3, r3, r2
  40206a:	f8c9 3004 	strne.w	r3, [r9, #4]
  40206e:	f018 0307 	ands.w	r3, r8, #7
  402072:	4638      	mov	r0, r7
  402074:	bf1f      	itttt	ne
  402076:	f1c3 0208 	rsbne	r2, r3, #8
  40207a:	f5c3 5380 	rsbne	r3, r3, #4096	; 0x1000
  40207e:	4490      	addne	r8, r2
  402080:	f103 0208 	addne.w	r2, r3, #8
  402084:	eb08 030b 	add.w	r3, r8, fp
  402088:	bf08      	it	eq
  40208a:	f44f 5280 	moveq.w	r2, #4096	; 0x1000
  40208e:	051b      	lsls	r3, r3, #20
  402090:	0d1b      	lsrs	r3, r3, #20
  402092:	ebc3 0b02 	rsb	fp, r3, r2
  402096:	4659      	mov	r1, fp
  402098:	f000 fd34 	bl	402b04 <_sbrk_r>
  40209c:	1c43      	adds	r3, r0, #1
  40209e:	f000 8149 	beq.w	402334 <_malloc_r+0x53c>
  4020a2:	ebc8 0100 	rsb	r1, r8, r0
  4020a6:	4459      	add	r1, fp
  4020a8:	f041 0101 	orr.w	r1, r1, #1
  4020ac:	f8d9 3004 	ldr.w	r3, [r9, #4]
  4020b0:	42b5      	cmp	r5, r6
  4020b2:	f240 52a8 	movw	r2, #1448	; 0x5a8
  4020b6:	f8c6 8008 	str.w	r8, [r6, #8]
  4020ba:	445b      	add	r3, fp
  4020bc:	f2c2 0200 	movt	r2, #8192	; 0x2000
  4020c0:	f8c8 1004 	str.w	r1, [r8, #4]
  4020c4:	f8c9 3004 	str.w	r3, [r9, #4]
  4020c8:	d018      	beq.n	4020fc <_malloc_r+0x304>
  4020ca:	f1ba 0f0f 	cmp.w	sl, #15
  4020ce:	f240 810b 	bls.w	4022e8 <_malloc_r+0x4f0>
  4020d2:	f1aa 000c 	sub.w	r0, sl, #12
  4020d6:	6869      	ldr	r1, [r5, #4]
  4020d8:	f020 0007 	bic.w	r0, r0, #7
  4020dc:	f04f 0c05 	mov.w	ip, #5
  4020e0:	eb05 0e00 	add.w	lr, r5, r0
  4020e4:	280f      	cmp	r0, #15
  4020e6:	f001 0101 	and.w	r1, r1, #1
  4020ea:	ea40 0101 	orr.w	r1, r0, r1
  4020ee:	6069      	str	r1, [r5, #4]
  4020f0:	f8ce c004 	str.w	ip, [lr, #4]
  4020f4:	f8ce c008 	str.w	ip, [lr, #8]
  4020f8:	f200 8120 	bhi.w	40233c <_malloc_r+0x544>
  4020fc:	f240 52a8 	movw	r2, #1448	; 0x5a8
  402100:	f8d9 102c 	ldr.w	r1, [r9, #44]	; 0x2c
  402104:	f2c2 0200 	movt	r2, #8192	; 0x2000
  402108:	68b5      	ldr	r5, [r6, #8]
  40210a:	428b      	cmp	r3, r1
  40210c:	f8d9 1030 	ldr.w	r1, [r9, #48]	; 0x30
  402110:	bf88      	it	hi
  402112:	62d3      	strhi	r3, [r2, #44]	; 0x2c
  402114:	f240 52a8 	movw	r2, #1448	; 0x5a8
  402118:	f2c2 0200 	movt	r2, #8192	; 0x2000
  40211c:	428b      	cmp	r3, r1
  40211e:	bf88      	it	hi
  402120:	6313      	strhi	r3, [r2, #48]	; 0x30
  402122:	686a      	ldr	r2, [r5, #4]
  402124:	f022 0203 	bic.w	r2, r2, #3
  402128:	4294      	cmp	r4, r2
  40212a:	ebc4 0302 	rsb	r3, r4, r2
  40212e:	d801      	bhi.n	402134 <_malloc_r+0x33c>
  402130:	2b0f      	cmp	r3, #15
  402132:	dc05      	bgt.n	402140 <_malloc_r+0x348>
  402134:	4638      	mov	r0, r7
  402136:	f04f 0800 	mov.w	r8, #0
  40213a:	f000 fafb 	bl	402734 <__malloc_unlock>
  40213e:	e690      	b.n	401e62 <_malloc_r+0x6a>
  402140:	192a      	adds	r2, r5, r4
  402142:	f043 0301 	orr.w	r3, r3, #1
  402146:	f044 0401 	orr.w	r4, r4, #1
  40214a:	4638      	mov	r0, r7
  40214c:	606c      	str	r4, [r5, #4]
  40214e:	f105 0808 	add.w	r8, r5, #8
  402152:	6053      	str	r3, [r2, #4]
  402154:	60b2      	str	r2, [r6, #8]
  402156:	f000 faed 	bl	402734 <__malloc_unlock>
  40215a:	e682      	b.n	401e62 <_malloc_r+0x6a>
  40215c:	1859      	adds	r1, r3, r1
  40215e:	68da      	ldr	r2, [r3, #12]
  402160:	689c      	ldr	r4, [r3, #8]
  402162:	4638      	mov	r0, r7
  402164:	684d      	ldr	r5, [r1, #4]
  402166:	f103 0808 	add.w	r8, r3, #8
  40216a:	f045 0501 	orr.w	r5, r5, #1
  40216e:	60e2      	str	r2, [r4, #12]
  402170:	6094      	str	r4, [r2, #8]
  402172:	604d      	str	r5, [r1, #4]
  402174:	f000 fade 	bl	402734 <__malloc_unlock>
  402178:	e673      	b.n	401e62 <_malloc_r+0x6a>
  40217a:	f1bc 0f14 	cmp.w	ip, #20
  40217e:	bf9c      	itt	ls
  402180:	f10c 0c5b 	addls.w	ip, ip, #91	; 0x5b
  402184:	ea4f 054c 	movls.w	r5, ip, lsl #1
  402188:	f67f ae86 	bls.w	401e98 <_malloc_r+0xa0>
  40218c:	f1bc 0f54 	cmp.w	ip, #84	; 0x54
  402190:	f200 8093 	bhi.w	4022ba <_malloc_r+0x4c2>
  402194:	ea4f 3c14 	mov.w	ip, r4, lsr #12
  402198:	f10c 0c6e 	add.w	ip, ip, #110	; 0x6e
  40219c:	ea4f 054c 	mov.w	r5, ip, lsl #1
  4021a0:	e67a      	b.n	401e98 <_malloc_r+0xa0>
  4021a2:	0a42      	lsrs	r2, r0, #9
  4021a4:	2a04      	cmp	r2, #4
  4021a6:	d975      	bls.n	402294 <_malloc_r+0x49c>
  4021a8:	2a14      	cmp	r2, #20
  4021aa:	bf9c      	itt	ls
  4021ac:	f102 095b 	addls.w	r9, r2, #91	; 0x5b
  4021b0:	ea4f 0549 	movls.w	r5, r9, lsl #1
  4021b4:	d908      	bls.n	4021c8 <_malloc_r+0x3d0>
  4021b6:	2a54      	cmp	r2, #84	; 0x54
  4021b8:	f200 80c9 	bhi.w	40234e <_malloc_r+0x556>
  4021bc:	ea4f 3910 	mov.w	r9, r0, lsr #12
  4021c0:	f109 096e 	add.w	r9, r9, #110	; 0x6e
  4021c4:	ea4f 0549 	mov.w	r5, r9, lsl #1
  4021c8:	eb06 0585 	add.w	r5, r6, r5, lsl #2
  4021cc:	f240 1874 	movw	r8, #372	; 0x174
  4021d0:	f2c2 0800 	movt	r8, #8192	; 0x2000
  4021d4:	68aa      	ldr	r2, [r5, #8]
  4021d6:	42aa      	cmp	r2, r5
  4021d8:	d079      	beq.n	4022ce <_malloc_r+0x4d6>
  4021da:	6851      	ldr	r1, [r2, #4]
  4021dc:	f021 0103 	bic.w	r1, r1, #3
  4021e0:	4288      	cmp	r0, r1
  4021e2:	d202      	bcs.n	4021ea <_malloc_r+0x3f2>
  4021e4:	6892      	ldr	r2, [r2, #8]
  4021e6:	4295      	cmp	r5, r2
  4021e8:	d1f7      	bne.n	4021da <_malloc_r+0x3e2>
  4021ea:	68d0      	ldr	r0, [r2, #12]
  4021ec:	f8d6 9004 	ldr.w	r9, [r6, #4]
  4021f0:	60d8      	str	r0, [r3, #12]
  4021f2:	609a      	str	r2, [r3, #8]
  4021f4:	60d3      	str	r3, [r2, #12]
  4021f6:	6083      	str	r3, [r0, #8]
  4021f8:	e697      	b.n	401f2a <_malloc_r+0x132>
  4021fa:	191d      	adds	r5, r3, r4
  4021fc:	f041 0601 	orr.w	r6, r1, #1
  402200:	6155      	str	r5, [r2, #20]
  402202:	f044 0401 	orr.w	r4, r4, #1
  402206:	6115      	str	r5, [r2, #16]
  402208:	4638      	mov	r0, r7
  40220a:	605c      	str	r4, [r3, #4]
  40220c:	f103 0808 	add.w	r8, r3, #8
  402210:	f8c5 e00c 	str.w	lr, [r5, #12]
  402214:	f8c5 e008 	str.w	lr, [r5, #8]
  402218:	606e      	str	r6, [r5, #4]
  40221a:	5069      	str	r1, [r5, r1]
  40221c:	f000 fa8a 	bl	402734 <__malloc_unlock>
  402220:	e61f      	b.n	401e62 <_malloc_r+0x6a>
  402222:	f108 0801 	add.w	r8, r8, #1
  402226:	3008      	adds	r0, #8
  402228:	f018 0f03 	tst.w	r8, #3
  40222c:	f47f ae99 	bne.w	401f62 <_malloc_r+0x16a>
  402230:	464a      	mov	r2, r9
  402232:	f01c 0f03 	tst.w	ip, #3
  402236:	f1a2 0108 	sub.w	r1, r2, #8
  40223a:	f10c 3cff 	add.w	ip, ip, #4294967295
  40223e:	f000 809e 	beq.w	40237e <_malloc_r+0x586>
  402242:	6812      	ldr	r2, [r2, #0]
  402244:	428a      	cmp	r2, r1
  402246:	d0f4      	beq.n	402232 <_malloc_r+0x43a>
  402248:	6872      	ldr	r2, [r6, #4]
  40224a:	005b      	lsls	r3, r3, #1
  40224c:	4293      	cmp	r3, r2
  40224e:	f63f aec8 	bhi.w	401fe2 <_malloc_r+0x1ea>
  402252:	2b00      	cmp	r3, #0
  402254:	f43f aec5 	beq.w	401fe2 <_malloc_r+0x1ea>
  402258:	421a      	tst	r2, r3
  40225a:	f000 8095 	beq.w	402388 <_malloc_r+0x590>
  40225e:	46c4      	mov	ip, r8
  402260:	e67b      	b.n	401f5a <_malloc_r+0x162>
  402262:	f103 0208 	add.w	r2, r3, #8
  402266:	695b      	ldr	r3, [r3, #20]
  402268:	429a      	cmp	r2, r3
  40226a:	bf08      	it	eq
  40226c:	f10c 0c02 	addeq.w	ip, ip, #2
  402270:	f43f ae2c 	beq.w	401ecc <_malloc_r+0xd4>
  402274:	e5e4      	b.n	401e40 <_malloc_r+0x48>
  402276:	4690      	mov	r8, r2
  402278:	1955      	adds	r5, r2, r5
  40227a:	68d3      	ldr	r3, [r2, #12]
  40227c:	4638      	mov	r0, r7
  40227e:	f858 2f08 	ldr.w	r2, [r8, #8]!
  402282:	6869      	ldr	r1, [r5, #4]
  402284:	60d3      	str	r3, [r2, #12]
  402286:	f041 0101 	orr.w	r1, r1, #1
  40228a:	609a      	str	r2, [r3, #8]
  40228c:	6069      	str	r1, [r5, #4]
  40228e:	f000 fa51 	bl	402734 <__malloc_unlock>
  402292:	e5e6      	b.n	401e62 <_malloc_r+0x6a>
  402294:	ea4f 1990 	mov.w	r9, r0, lsr #6
  402298:	f109 0938 	add.w	r9, r9, #56	; 0x38
  40229c:	ea4f 0549 	mov.w	r5, r9, lsl #1
  4022a0:	e792      	b.n	4021c8 <_malloc_r+0x3d0>
  4022a2:	42b5      	cmp	r5, r6
  4022a4:	f240 1374 	movw	r3, #372	; 0x174
  4022a8:	f2c2 0300 	movt	r3, #8192	; 0x2000
  4022ac:	f43f aec8 	beq.w	402040 <_malloc_r+0x248>
  4022b0:	689d      	ldr	r5, [r3, #8]
  4022b2:	686a      	ldr	r2, [r5, #4]
  4022b4:	f022 0203 	bic.w	r2, r2, #3
  4022b8:	e736      	b.n	402128 <_malloc_r+0x330>
  4022ba:	f5bc 7faa 	cmp.w	ip, #340	; 0x154
  4022be:	d819      	bhi.n	4022f4 <_malloc_r+0x4fc>
  4022c0:	ea4f 3cd4 	mov.w	ip, r4, lsr #15
  4022c4:	f10c 0c77 	add.w	ip, ip, #119	; 0x77
  4022c8:	ea4f 054c 	mov.w	r5, ip, lsl #1
  4022cc:	e5e4      	b.n	401e98 <_malloc_r+0xa0>
  4022ce:	2501      	movs	r5, #1
  4022d0:	f8d8 1004 	ldr.w	r1, [r8, #4]
  4022d4:	ea4f 09a9 	mov.w	r9, r9, asr #2
  4022d8:	4610      	mov	r0, r2
  4022da:	fa05 f509 	lsl.w	r5, r5, r9
  4022de:	ea45 0901 	orr.w	r9, r5, r1
  4022e2:	f8c8 9004 	str.w	r9, [r8, #4]
  4022e6:	e783      	b.n	4021f0 <_malloc_r+0x3f8>
  4022e8:	2301      	movs	r3, #1
  4022ea:	4645      	mov	r5, r8
  4022ec:	f8c8 3004 	str.w	r3, [r8, #4]
  4022f0:	2200      	movs	r2, #0
  4022f2:	e719      	b.n	402128 <_malloc_r+0x330>
  4022f4:	f240 5354 	movw	r3, #1364	; 0x554
  4022f8:	459c      	cmp	ip, r3
  4022fa:	d80b      	bhi.n	402314 <_malloc_r+0x51c>
  4022fc:	ea4f 4c94 	mov.w	ip, r4, lsr #18
  402300:	f10c 0c7c 	add.w	ip, ip, #124	; 0x7c
  402304:	ea4f 054c 	mov.w	r5, ip, lsl #1
  402308:	e5c6      	b.n	401e98 <_malloc_r+0xa0>
  40230a:	68b5      	ldr	r5, [r6, #8]
  40230c:	686a      	ldr	r2, [r5, #4]
  40230e:	f022 0203 	bic.w	r2, r2, #3
  402312:	e709      	b.n	402128 <_malloc_r+0x330>
  402314:	25fc      	movs	r5, #252	; 0xfc
  402316:	f04f 0c7e 	mov.w	ip, #126	; 0x7e
  40231a:	e5bd      	b.n	401e98 <_malloc_r+0xa0>
  40231c:	0511      	lsls	r1, r2, #20
  40231e:	0d09      	lsrs	r1, r1, #20
  402320:	2900      	cmp	r1, #0
  402322:	f47f ae95 	bne.w	402050 <_malloc_r+0x258>
  402326:	68b2      	ldr	r2, [r6, #8]
  402328:	eb0b 010a 	add.w	r1, fp, sl
  40232c:	f041 0101 	orr.w	r1, r1, #1
  402330:	6051      	str	r1, [r2, #4]
  402332:	e6e3      	b.n	4020fc <_malloc_r+0x304>
  402334:	2101      	movs	r1, #1
  402336:	f04f 0b00 	mov.w	fp, #0
  40233a:	e6b7      	b.n	4020ac <_malloc_r+0x2b4>
  40233c:	4638      	mov	r0, r7
  40233e:	f105 0108 	add.w	r1, r5, #8
  402342:	9201      	str	r2, [sp, #4]
  402344:	f7ff f9ea 	bl	40171c <_free_r>
  402348:	9a01      	ldr	r2, [sp, #4]
  40234a:	6853      	ldr	r3, [r2, #4]
  40234c:	e6d6      	b.n	4020fc <_malloc_r+0x304>
  40234e:	f5b2 7faa 	cmp.w	r2, #340	; 0x154
  402352:	d806      	bhi.n	402362 <_malloc_r+0x56a>
  402354:	ea4f 39d0 	mov.w	r9, r0, lsr #15
  402358:	f109 0977 	add.w	r9, r9, #119	; 0x77
  40235c:	ea4f 0549 	mov.w	r5, r9, lsl #1
  402360:	e732      	b.n	4021c8 <_malloc_r+0x3d0>
  402362:	f240 5154 	movw	r1, #1364	; 0x554
  402366:	25fc      	movs	r5, #252	; 0xfc
  402368:	428a      	cmp	r2, r1
  40236a:	f04f 097e 	mov.w	r9, #126	; 0x7e
  40236e:	bf9e      	ittt	ls
  402370:	ea4f 4990 	movls.w	r9, r0, lsr #18
  402374:	f109 097c 	addls.w	r9, r9, #124	; 0x7c
  402378:	ea4f 0549 	movls.w	r5, r9, lsl #1
  40237c:	e724      	b.n	4021c8 <_malloc_r+0x3d0>
  40237e:	6872      	ldr	r2, [r6, #4]
  402380:	ea22 0203 	bic.w	r2, r2, r3
  402384:	6072      	str	r2, [r6, #4]
  402386:	e760      	b.n	40224a <_malloc_r+0x452>
  402388:	005b      	lsls	r3, r3, #1
  40238a:	f108 0804 	add.w	r8, r8, #4
  40238e:	e763      	b.n	402258 <_malloc_r+0x460>

00402390 <memchr>:
  402390:	0783      	lsls	r3, r0, #30
  402392:	b2c9      	uxtb	r1, r1
  402394:	b470      	push	{r4, r5, r6}
  402396:	d040      	beq.n	40241a <memchr+0x8a>
  402398:	1e54      	subs	r4, r2, #1
  40239a:	2a00      	cmp	r2, #0
  40239c:	d03f      	beq.n	40241e <memchr+0x8e>
  40239e:	7803      	ldrb	r3, [r0, #0]
  4023a0:	428b      	cmp	r3, r1
  4023a2:	d021      	beq.n	4023e8 <memchr+0x58>
  4023a4:	1c43      	adds	r3, r0, #1
  4023a6:	e004      	b.n	4023b2 <memchr+0x22>
  4023a8:	b304      	cbz	r4, 4023ec <memchr+0x5c>
  4023aa:	7802      	ldrb	r2, [r0, #0]
  4023ac:	3c01      	subs	r4, #1
  4023ae:	428a      	cmp	r2, r1
  4023b0:	d01a      	beq.n	4023e8 <memchr+0x58>
  4023b2:	f013 0f03 	tst.w	r3, #3
  4023b6:	4618      	mov	r0, r3
  4023b8:	f103 0301 	add.w	r3, r3, #1
  4023bc:	d1f4      	bne.n	4023a8 <memchr+0x18>
  4023be:	2c03      	cmp	r4, #3
  4023c0:	d816      	bhi.n	4023f0 <memchr+0x60>
  4023c2:	1e65      	subs	r5, r4, #1
  4023c4:	b194      	cbz	r4, 4023ec <memchr+0x5c>
  4023c6:	7803      	ldrb	r3, [r0, #0]
  4023c8:	428b      	cmp	r3, r1
  4023ca:	d00d      	beq.n	4023e8 <memchr+0x58>
  4023cc:	1c42      	adds	r2, r0, #1
  4023ce:	2300      	movs	r3, #0
  4023d0:	e002      	b.n	4023d8 <memchr+0x48>
  4023d2:	7804      	ldrb	r4, [r0, #0]
  4023d4:	428c      	cmp	r4, r1
  4023d6:	d007      	beq.n	4023e8 <memchr+0x58>
  4023d8:	429d      	cmp	r5, r3
  4023da:	4610      	mov	r0, r2
  4023dc:	f103 0301 	add.w	r3, r3, #1
  4023e0:	f102 0201 	add.w	r2, r2, #1
  4023e4:	d1f5      	bne.n	4023d2 <memchr+0x42>
  4023e6:	2000      	movs	r0, #0
  4023e8:	bc70      	pop	{r4, r5, r6}
  4023ea:	4770      	bx	lr
  4023ec:	4620      	mov	r0, r4
  4023ee:	e7fb      	b.n	4023e8 <memchr+0x58>
  4023f0:	ea41 2601 	orr.w	r6, r1, r1, lsl #8
  4023f4:	ea46 4606 	orr.w	r6, r6, r6, lsl #16
  4023f8:	4602      	mov	r2, r0
  4023fa:	3004      	adds	r0, #4
  4023fc:	6813      	ldr	r3, [r2, #0]
  4023fe:	4073      	eors	r3, r6
  402400:	f1a3 3501 	sub.w	r5, r3, #16843009	; 0x1010101
  402404:	ea25 0303 	bic.w	r3, r5, r3
  402408:	f013 3f80 	tst.w	r3, #2155905152	; 0x80808080
  40240c:	d103      	bne.n	402416 <memchr+0x86>
  40240e:	3c04      	subs	r4, #4
  402410:	2c03      	cmp	r4, #3
  402412:	d8f1      	bhi.n	4023f8 <memchr+0x68>
  402414:	e7d5      	b.n	4023c2 <memchr+0x32>
  402416:	4610      	mov	r0, r2
  402418:	e7d3      	b.n	4023c2 <memchr+0x32>
  40241a:	4614      	mov	r4, r2
  40241c:	e7cf      	b.n	4023be <memchr+0x2e>
  40241e:	4610      	mov	r0, r2
  402420:	e7e2      	b.n	4023e8 <memchr+0x58>
  402422:	bf00      	nop

00402424 <memcpy>:
  402424:	2a03      	cmp	r2, #3
  402426:	e92d 0ff0 	stmdb	sp!, {r4, r5, r6, r7, r8, r9, sl, fp}
  40242a:	d809      	bhi.n	402440 <memcpy+0x1c>
  40242c:	b12a      	cbz	r2, 40243a <memcpy+0x16>
  40242e:	2300      	movs	r3, #0
  402430:	5ccc      	ldrb	r4, [r1, r3]
  402432:	54c4      	strb	r4, [r0, r3]
  402434:	3301      	adds	r3, #1
  402436:	4293      	cmp	r3, r2
  402438:	d1fa      	bne.n	402430 <memcpy+0xc>
  40243a:	e8bd 0ff0 	ldmia.w	sp!, {r4, r5, r6, r7, r8, r9, sl, fp}
  40243e:	4770      	bx	lr
  402440:	0783      	lsls	r3, r0, #30
  402442:	4402      	add	r2, r0
  402444:	d00e      	beq.n	402464 <memcpy+0x40>
  402446:	1c44      	adds	r4, r0, #1
  402448:	1c4d      	adds	r5, r1, #1
  40244a:	f815 7c01 	ldrb.w	r7, [r5, #-1]
  40244e:	f004 0603 	and.w	r6, r4, #3
  402452:	4623      	mov	r3, r4
  402454:	3401      	adds	r4, #1
  402456:	4629      	mov	r1, r5
  402458:	3501      	adds	r5, #1
  40245a:	f804 7c02 	strb.w	r7, [r4, #-2]
  40245e:	2e00      	cmp	r6, #0
  402460:	d1f3      	bne.n	40244a <memcpy+0x26>
  402462:	e000      	b.n	402466 <memcpy+0x42>
  402464:	4603      	mov	r3, r0
  402466:	f011 0403 	ands.w	r4, r1, #3
  40246a:	d06d      	beq.n	402548 <memcpy+0x124>
  40246c:	1ad7      	subs	r7, r2, r3
  40246e:	1b0d      	subs	r5, r1, r4
  402470:	2f03      	cmp	r7, #3
  402472:	682e      	ldr	r6, [r5, #0]
  402474:	dd19      	ble.n	4024aa <memcpy+0x86>
  402476:	f1c4 0c04 	rsb	ip, r4, #4
  40247a:	ea4f 08c4 	mov.w	r8, r4, lsl #3
  40247e:	1d1c      	adds	r4, r3, #4
  402480:	ea4f 0ccc 	mov.w	ip, ip, lsl #3
  402484:	f855 7f04 	ldr.w	r7, [r5, #4]!
  402488:	ebc4 0902 	rsb	r9, r4, r2
  40248c:	4623      	mov	r3, r4
  40248e:	3104      	adds	r1, #4
  402490:	3404      	adds	r4, #4
  402492:	f1b9 0f03 	cmp.w	r9, #3
  402496:	fa26 fa08 	lsr.w	sl, r6, r8
  40249a:	fa07 fb0c 	lsl.w	fp, r7, ip
  40249e:	463e      	mov	r6, r7
  4024a0:	ea4b 070a 	orr.w	r7, fp, sl
  4024a4:	f844 7c08 	str.w	r7, [r4, #-8]
  4024a8:	dcec      	bgt.n	402484 <memcpy+0x60>
  4024aa:	429a      	cmp	r2, r3
  4024ac:	d9c5      	bls.n	40243a <memcpy+0x16>
  4024ae:	3301      	adds	r3, #1
  4024b0:	3101      	adds	r1, #1
  4024b2:	3201      	adds	r2, #1
  4024b4:	f811 4c01 	ldrb.w	r4, [r1, #-1]
  4024b8:	3301      	adds	r3, #1
  4024ba:	3101      	adds	r1, #1
  4024bc:	4293      	cmp	r3, r2
  4024be:	f803 4c02 	strb.w	r4, [r3, #-2]
  4024c2:	d1f7      	bne.n	4024b4 <memcpy+0x90>
  4024c4:	e7b9      	b.n	40243a <memcpy+0x16>
  4024c6:	680c      	ldr	r4, [r1, #0]
  4024c8:	3340      	adds	r3, #64	; 0x40
  4024ca:	3140      	adds	r1, #64	; 0x40
  4024cc:	f843 4c40 	str.w	r4, [r3, #-64]
  4024d0:	f851 4c3c 	ldr.w	r4, [r1, #-60]
  4024d4:	f843 4c3c 	str.w	r4, [r3, #-60]
  4024d8:	f851 4c38 	ldr.w	r4, [r1, #-56]
  4024dc:	f843 4c38 	str.w	r4, [r3, #-56]
  4024e0:	f851 4c34 	ldr.w	r4, [r1, #-52]
  4024e4:	f843 4c34 	str.w	r4, [r3, #-52]
  4024e8:	f851 4c30 	ldr.w	r4, [r1, #-48]
  4024ec:	f843 4c30 	str.w	r4, [r3, #-48]
  4024f0:	f851 4c2c 	ldr.w	r4, [r1, #-44]
  4024f4:	f843 4c2c 	str.w	r4, [r3, #-44]
  4024f8:	f851 4c28 	ldr.w	r4, [r1, #-40]
  4024fc:	f843 4c28 	str.w	r4, [r3, #-40]
  402500:	f851 4c24 	ldr.w	r4, [r1, #-36]
  402504:	f843 4c24 	str.w	r4, [r3, #-36]
  402508:	f851 4c20 	ldr.w	r4, [r1, #-32]
  40250c:	f843 4c20 	str.w	r4, [r3, #-32]
  402510:	f851 4c1c 	ldr.w	r4, [r1, #-28]
  402514:	f843 4c1c 	str.w	r4, [r3, #-28]
  402518:	f851 4c18 	ldr.w	r4, [r1, #-24]
  40251c:	f843 4c18 	str.w	r4, [r3, #-24]
  402520:	f851 4c14 	ldr.w	r4, [r1, #-20]
  402524:	f843 4c14 	str.w	r4, [r3, #-20]
  402528:	f851 4c10 	ldr.w	r4, [r1, #-16]
  40252c:	f843 4c10 	str.w	r4, [r3, #-16]
  402530:	f851 4c0c 	ldr.w	r4, [r1, #-12]
  402534:	f843 4c0c 	str.w	r4, [r3, #-12]
  402538:	f851 4c08 	ldr.w	r4, [r1, #-8]
  40253c:	f843 4c08 	str.w	r4, [r3, #-8]
  402540:	f851 4c04 	ldr.w	r4, [r1, #-4]
  402544:	f843 4c04 	str.w	r4, [r3, #-4]
  402548:	1ad4      	subs	r4, r2, r3
  40254a:	2c3f      	cmp	r4, #63	; 0x3f
  40254c:	dcbb      	bgt.n	4024c6 <memcpy+0xa2>
  40254e:	e011      	b.n	402574 <memcpy+0x150>
  402550:	680c      	ldr	r4, [r1, #0]
  402552:	3310      	adds	r3, #16
  402554:	3110      	adds	r1, #16
  402556:	f843 4c10 	str.w	r4, [r3, #-16]
  40255a:	f851 4c0c 	ldr.w	r4, [r1, #-12]
  40255e:	f843 4c0c 	str.w	r4, [r3, #-12]
  402562:	f851 4c08 	ldr.w	r4, [r1, #-8]
  402566:	f843 4c08 	str.w	r4, [r3, #-8]
  40256a:	f851 4c04 	ldr.w	r4, [r1, #-4]
  40256e:	f843 4c04 	str.w	r4, [r3, #-4]
  402572:	1ad4      	subs	r4, r2, r3
  402574:	2c0f      	cmp	r4, #15
  402576:	dceb      	bgt.n	402550 <memcpy+0x12c>
  402578:	2c03      	cmp	r4, #3
  40257a:	dd96      	ble.n	4024aa <memcpy+0x86>
  40257c:	1d1c      	adds	r4, r3, #4
  40257e:	1d0d      	adds	r5, r1, #4
  402580:	f855 7c04 	ldr.w	r7, [r5, #-4]
  402584:	1b16      	subs	r6, r2, r4
  402586:	4623      	mov	r3, r4
  402588:	4629      	mov	r1, r5
  40258a:	3404      	adds	r4, #4
  40258c:	3504      	adds	r5, #4
  40258e:	2e03      	cmp	r6, #3
  402590:	f844 7c08 	str.w	r7, [r4, #-8]
  402594:	dcf4      	bgt.n	402580 <memcpy+0x15c>
  402596:	e788      	b.n	4024aa <memcpy+0x86>

00402598 <memmove>:
  402598:	4288      	cmp	r0, r1
  40259a:	b4f0      	push	{r4, r5, r6, r7}
  40259c:	d911      	bls.n	4025c2 <memmove+0x2a>
  40259e:	188c      	adds	r4, r1, r2
  4025a0:	42a0      	cmp	r0, r4
  4025a2:	d20e      	bcs.n	4025c2 <memmove+0x2a>
  4025a4:	1885      	adds	r5, r0, r2
  4025a6:	1e53      	subs	r3, r2, #1
  4025a8:	b14a      	cbz	r2, 4025be <memmove+0x26>
  4025aa:	4621      	mov	r1, r4
  4025ac:	462a      	mov	r2, r5
  4025ae:	f811 4d01 	ldrb.w	r4, [r1, #-1]!
  4025b2:	3b01      	subs	r3, #1
  4025b4:	f1b3 3fff 	cmp.w	r3, #4294967295
  4025b8:	f802 4d01 	strb.w	r4, [r2, #-1]!
  4025bc:	d1f7      	bne.n	4025ae <memmove+0x16>
  4025be:	bcf0      	pop	{r4, r5, r6, r7}
  4025c0:	4770      	bx	lr
  4025c2:	2a0f      	cmp	r2, #15
  4025c4:	d947      	bls.n	402656 <memmove+0xbe>
  4025c6:	ea41 0300 	orr.w	r3, r1, r0
  4025ca:	079b      	lsls	r3, r3, #30
  4025cc:	d145      	bne.n	40265a <memmove+0xc2>
  4025ce:	460c      	mov	r4, r1
  4025d0:	4603      	mov	r3, r0
  4025d2:	4615      	mov	r5, r2
  4025d4:	6826      	ldr	r6, [r4, #0]
  4025d6:	3310      	adds	r3, #16
  4025d8:	3410      	adds	r4, #16
  4025da:	3d10      	subs	r5, #16
  4025dc:	2d0f      	cmp	r5, #15
  4025de:	f843 6c10 	str.w	r6, [r3, #-16]
  4025e2:	f854 6c0c 	ldr.w	r6, [r4, #-12]
  4025e6:	f843 6c0c 	str.w	r6, [r3, #-12]
  4025ea:	f854 6c08 	ldr.w	r6, [r4, #-8]
  4025ee:	f843 6c08 	str.w	r6, [r3, #-8]
  4025f2:	f854 6c04 	ldr.w	r6, [r4, #-4]
  4025f6:	f843 6c04 	str.w	r6, [r3, #-4]
  4025fa:	d8eb      	bhi.n	4025d4 <memmove+0x3c>
  4025fc:	f1a2 0510 	sub.w	r5, r2, #16
  402600:	f002 040f 	and.w	r4, r2, #15
  402604:	f025 050f 	bic.w	r5, r5, #15
  402608:	3510      	adds	r5, #16
  40260a:	2c03      	cmp	r4, #3
  40260c:	eb00 0305 	add.w	r3, r0, r5
  402610:	4429      	add	r1, r5
  402612:	d924      	bls.n	40265e <memmove+0xc6>
  402614:	f1a4 0c04 	sub.w	ip, r4, #4
  402618:	461d      	mov	r5, r3
  40261a:	460c      	mov	r4, r1
  40261c:	ea4f 0c9c 	mov.w	ip, ip, lsr #2
  402620:	eb01 078c 	add.w	r7, r1, ip, lsl #2
  402624:	3704      	adds	r7, #4
  402626:	f854 6b04 	ldr.w	r6, [r4], #4
  40262a:	42bc      	cmp	r4, r7
  40262c:	f845 6b04 	str.w	r6, [r5], #4
  402630:	d1f9      	bne.n	402626 <memmove+0x8e>
  402632:	f10c 0401 	add.w	r4, ip, #1
  402636:	f002 0203 	and.w	r2, r2, #3
  40263a:	00a4      	lsls	r4, r4, #2
  40263c:	1909      	adds	r1, r1, r4
  40263e:	191b      	adds	r3, r3, r4
  402640:	2a00      	cmp	r2, #0
  402642:	d0bc      	beq.n	4025be <memmove+0x26>
  402644:	3901      	subs	r1, #1
  402646:	189a      	adds	r2, r3, r2
  402648:	f811 4f01 	ldrb.w	r4, [r1, #1]!
  40264c:	f803 4b01 	strb.w	r4, [r3], #1
  402650:	4293      	cmp	r3, r2
  402652:	d1f9      	bne.n	402648 <memmove+0xb0>
  402654:	e7b3      	b.n	4025be <memmove+0x26>
  402656:	4603      	mov	r3, r0
  402658:	e7f2      	b.n	402640 <memmove+0xa8>
  40265a:	4603      	mov	r3, r0
  40265c:	e7f2      	b.n	402644 <memmove+0xac>
  40265e:	4622      	mov	r2, r4
  402660:	e7ee      	b.n	402640 <memmove+0xa8>
  402662:	bf00      	nop

00402664 <memset>:
  402664:	2a03      	cmp	r2, #3
  402666:	b2c9      	uxtb	r1, r1
  402668:	b470      	push	{r4, r5, r6}
  40266a:	d808      	bhi.n	40267e <memset+0x1a>
  40266c:	b12a      	cbz	r2, 40267a <memset+0x16>
  40266e:	4603      	mov	r3, r0
  402670:	1812      	adds	r2, r2, r0
  402672:	f803 1b01 	strb.w	r1, [r3], #1
  402676:	4293      	cmp	r3, r2
  402678:	d1fb      	bne.n	402672 <memset+0xe>
  40267a:	bc70      	pop	{r4, r5, r6}
  40267c:	4770      	bx	lr
  40267e:	0783      	lsls	r3, r0, #30
  402680:	4402      	add	r2, r0
  402682:	d009      	beq.n	402698 <memset+0x34>
  402684:	1c44      	adds	r4, r0, #1
  402686:	f004 0503 	and.w	r5, r4, #3
  40268a:	4623      	mov	r3, r4
  40268c:	f804 1c01 	strb.w	r1, [r4, #-1]
  402690:	3401      	adds	r4, #1
  402692:	2d00      	cmp	r5, #0
  402694:	d1f7      	bne.n	402686 <memset+0x22>
  402696:	e000      	b.n	40269a <memset+0x36>
  402698:	4603      	mov	r3, r0
  40269a:	1ad5      	subs	r5, r2, r3
  40269c:	eb01 2401 	add.w	r4, r1, r1, lsl #8
  4026a0:	2d3f      	cmp	r5, #63	; 0x3f
  4026a2:	eb04 4404 	add.w	r4, r4, r4, lsl #16
  4026a6:	dd2c      	ble.n	402702 <memset+0x9e>
  4026a8:	601c      	str	r4, [r3, #0]
  4026aa:	3340      	adds	r3, #64	; 0x40
  4026ac:	1ad5      	subs	r5, r2, r3
  4026ae:	f843 4c3c 	str.w	r4, [r3, #-60]
  4026b2:	2d3f      	cmp	r5, #63	; 0x3f
  4026b4:	f843 4c38 	str.w	r4, [r3, #-56]
  4026b8:	f843 4c34 	str.w	r4, [r3, #-52]
  4026bc:	f843 4c30 	str.w	r4, [r3, #-48]
  4026c0:	f843 4c2c 	str.w	r4, [r3, #-44]
  4026c4:	f843 4c28 	str.w	r4, [r3, #-40]
  4026c8:	f843 4c24 	str.w	r4, [r3, #-36]
  4026cc:	f843 4c20 	str.w	r4, [r3, #-32]
  4026d0:	f843 4c1c 	str.w	r4, [r3, #-28]
  4026d4:	f843 4c18 	str.w	r4, [r3, #-24]
  4026d8:	f843 4c14 	str.w	r4, [r3, #-20]
  4026dc:	f843 4c10 	str.w	r4, [r3, #-16]
  4026e0:	f843 4c0c 	str.w	r4, [r3, #-12]
  4026e4:	f843 4c08 	str.w	r4, [r3, #-8]
  4026e8:	f843 4c04 	str.w	r4, [r3, #-4]
  4026ec:	dcdc      	bgt.n	4026a8 <memset+0x44>
  4026ee:	e008      	b.n	402702 <memset+0x9e>
  4026f0:	601c      	str	r4, [r3, #0]
  4026f2:	3310      	adds	r3, #16
  4026f4:	1ad5      	subs	r5, r2, r3
  4026f6:	f843 4c0c 	str.w	r4, [r3, #-12]
  4026fa:	f843 4c08 	str.w	r4, [r3, #-8]
  4026fe:	f843 4c04 	str.w	r4, [r3, #-4]
  402702:	2d0f      	cmp	r5, #15
  402704:	dcf4      	bgt.n	4026f0 <memset+0x8c>
  402706:	2d03      	cmp	r5, #3
  402708:	dd08      	ble.n	40271c <memset+0xb8>
  40270a:	1d1d      	adds	r5, r3, #4
  40270c:	1b56      	subs	r6, r2, r5
  40270e:	f845 4c04 	str.w	r4, [r5, #-4]
  402712:	2e03      	cmp	r6, #3
  402714:	462b      	mov	r3, r5
  402716:	f105 0504 	add.w	r5, r5, #4
  40271a:	dcf7      	bgt.n	40270c <memset+0xa8>
  40271c:	429a      	cmp	r2, r3
  40271e:	d9ac      	bls.n	40267a <memset+0x16>
  402720:	3301      	adds	r3, #1
  402722:	3201      	adds	r2, #1
  402724:	f803 1c01 	strb.w	r1, [r3, #-1]
  402728:	3301      	adds	r3, #1
  40272a:	4293      	cmp	r3, r2
  40272c:	d1fa      	bne.n	402724 <memset+0xc0>
  40272e:	e7a4      	b.n	40267a <memset+0x16>

00402730 <__malloc_lock>:
  402730:	4770      	bx	lr
  402732:	bf00      	nop

00402734 <__malloc_unlock>:
  402734:	4770      	bx	lr
  402736:	bf00      	nop

00402738 <_realloc_r>:
  402738:	e92d 4ff0 	stmdb	sp!, {r4, r5, r6, r7, r8, r9, sl, fp, lr}
  40273c:	460c      	mov	r4, r1
  40273e:	b083      	sub	sp, #12
  402740:	4681      	mov	r9, r0
  402742:	4617      	mov	r7, r2
  402744:	2900      	cmp	r1, #0
  402746:	f000 811c 	beq.w	402982 <_realloc_r+0x24a>
  40274a:	f107 050b 	add.w	r5, r7, #11
  40274e:	f7ff ffef 	bl	402730 <__malloc_lock>
  402752:	f854 2c04 	ldr.w	r2, [r4, #-4]
  402756:	2d16      	cmp	r5, #22
  402758:	f1a4 0a08 	sub.w	sl, r4, #8
  40275c:	f022 0603 	bic.w	r6, r2, #3
  402760:	d875      	bhi.n	40284e <_realloc_r+0x116>
  402762:	2110      	movs	r1, #16
  402764:	2300      	movs	r3, #0
  402766:	460d      	mov	r5, r1
  402768:	42bd      	cmp	r5, r7
  40276a:	bf38      	it	cc
  40276c:	f043 0301 	orrcc.w	r3, r3, #1
  402770:	2b00      	cmp	r3, #0
  402772:	f040 810c 	bne.w	40298e <_realloc_r+0x256>
  402776:	428e      	cmp	r6, r1
  402778:	da6e      	bge.n	402858 <_realloc_r+0x120>
  40277a:	f240 1b74 	movw	fp, #372	; 0x174
  40277e:	eb0a 0006 	add.w	r0, sl, r6
  402782:	f2c2 0b00 	movt	fp, #8192	; 0x2000
  402786:	f8db e008 	ldr.w	lr, [fp, #8]
  40278a:	4586      	cmp	lr, r0
  40278c:	f000 8104 	beq.w	402998 <_realloc_r+0x260>
  402790:	f8d0 c004 	ldr.w	ip, [r0, #4]
  402794:	f02c 0801 	bic.w	r8, ip, #1
  402798:	4480      	add	r8, r0
  40279a:	f8d8 8004 	ldr.w	r8, [r8, #4]
  40279e:	f018 0f01 	tst.w	r8, #1
  4027a2:	bf1c      	itt	ne
  4027a4:	469c      	movne	ip, r3
  4027a6:	4660      	movne	r0, ip
  4027a8:	d06f      	beq.n	40288a <_realloc_r+0x152>
  4027aa:	07d3      	lsls	r3, r2, #31
  4027ac:	f100 80c3 	bmi.w	402936 <_realloc_r+0x1fe>
  4027b0:	f854 3c08 	ldr.w	r3, [r4, #-8]
  4027b4:	ebc3 030a 	rsb	r3, r3, sl
  4027b8:	685a      	ldr	r2, [r3, #4]
  4027ba:	f022 0203 	bic.w	r2, r2, #3
  4027be:	1992      	adds	r2, r2, r6
  4027c0:	9201      	str	r2, [sp, #4]
  4027c2:	2800      	cmp	r0, #0
  4027c4:	d06c      	beq.n	4028a0 <_realloc_r+0x168>
  4027c6:	4570      	cmp	r0, lr
  4027c8:	f000 8137 	beq.w	402a3a <_realloc_r+0x302>
  4027cc:	eb0c 0802 	add.w	r8, ip, r2
  4027d0:	4588      	cmp	r8, r1
  4027d2:	db65      	blt.n	4028a0 <_realloc_r+0x168>
  4027d4:	68c1      	ldr	r1, [r0, #12]
  4027d6:	461f      	mov	r7, r3
  4027d8:	6880      	ldr	r0, [r0, #8]
  4027da:	1f32      	subs	r2, r6, #4
  4027dc:	2a24      	cmp	r2, #36	; 0x24
  4027de:	6088      	str	r0, [r1, #8]
  4027e0:	60c1      	str	r1, [r0, #12]
  4027e2:	f857 0f08 	ldr.w	r0, [r7, #8]!
  4027e6:	68d9      	ldr	r1, [r3, #12]
  4027e8:	60c1      	str	r1, [r0, #12]
  4027ea:	6088      	str	r0, [r1, #8]
  4027ec:	f200 8178 	bhi.w	402ae0 <_realloc_r+0x3a8>
  4027f0:	2a13      	cmp	r2, #19
  4027f2:	bf9c      	itt	ls
  4027f4:	4639      	movls	r1, r7
  4027f6:	4620      	movls	r0, r4
  4027f8:	d91f      	bls.n	40283a <_realloc_r+0x102>
  4027fa:	6821      	ldr	r1, [r4, #0]
  4027fc:	2a1b      	cmp	r2, #27
  4027fe:	bf98      	it	ls
  402800:	f104 0008 	addls.w	r0, r4, #8
  402804:	6099      	str	r1, [r3, #8]
  402806:	6861      	ldr	r1, [r4, #4]
  402808:	60d9      	str	r1, [r3, #12]
  40280a:	bf98      	it	ls
  40280c:	f103 0110 	addls.w	r1, r3, #16
  402810:	d913      	bls.n	40283a <_realloc_r+0x102>
  402812:	68a1      	ldr	r1, [r4, #8]
  402814:	2a24      	cmp	r2, #36	; 0x24
  402816:	bf14      	ite	ne
  402818:	f104 0010 	addne.w	r0, r4, #16
  40281c:	f104 0018 	addeq.w	r0, r4, #24
  402820:	6119      	str	r1, [r3, #16]
  402822:	68e1      	ldr	r1, [r4, #12]
  402824:	6159      	str	r1, [r3, #20]
  402826:	bf11      	iteee	ne
  402828:	f103 0118 	addne.w	r1, r3, #24
  40282c:	6922      	ldreq	r2, [r4, #16]
  40282e:	f103 0120 	addeq.w	r1, r3, #32
  402832:	619a      	streq	r2, [r3, #24]
  402834:	bf04      	itt	eq
  402836:	6962      	ldreq	r2, [r4, #20]
  402838:	61da      	streq	r2, [r3, #28]
  40283a:	6802      	ldr	r2, [r0, #0]
  40283c:	463c      	mov	r4, r7
  40283e:	600a      	str	r2, [r1, #0]
  402840:	469a      	mov	sl, r3
  402842:	6842      	ldr	r2, [r0, #4]
  402844:	604a      	str	r2, [r1, #4]
  402846:	6882      	ldr	r2, [r0, #8]
  402848:	608a      	str	r2, [r1, #8]
  40284a:	685a      	ldr	r2, [r3, #4]
  40284c:	e005      	b.n	40285a <_realloc_r+0x122>
  40284e:	f025 0507 	bic.w	r5, r5, #7
  402852:	4629      	mov	r1, r5
  402854:	0feb      	lsrs	r3, r5, #31
  402856:	e787      	b.n	402768 <_realloc_r+0x30>
  402858:	46b0      	mov	r8, r6
  40285a:	ebc5 0308 	rsb	r3, r5, r8
  40285e:	2b0f      	cmp	r3, #15
  402860:	d855      	bhi.n	40290e <_realloc_r+0x1d6>
  402862:	eb0a 0308 	add.w	r3, sl, r8
  402866:	f002 0201 	and.w	r2, r2, #1
  40286a:	ea42 0208 	orr.w	r2, r2, r8
  40286e:	f8ca 2004 	str.w	r2, [sl, #4]
  402872:	685a      	ldr	r2, [r3, #4]
  402874:	f042 0201 	orr.w	r2, r2, #1
  402878:	605a      	str	r2, [r3, #4]
  40287a:	4648      	mov	r0, r9
  40287c:	4627      	mov	r7, r4
  40287e:	f7ff ff59 	bl	402734 <__malloc_unlock>
  402882:	4638      	mov	r0, r7
  402884:	b003      	add	sp, #12
  402886:	e8bd 8ff0 	ldmia.w	sp!, {r4, r5, r6, r7, r8, r9, sl, fp, pc}
  40288a:	f02c 0c03 	bic.w	ip, ip, #3
  40288e:	eb0c 0806 	add.w	r8, ip, r6
  402892:	4588      	cmp	r8, r1
  402894:	db89      	blt.n	4027aa <_realloc_r+0x72>
  402896:	68c3      	ldr	r3, [r0, #12]
  402898:	6881      	ldr	r1, [r0, #8]
  40289a:	60cb      	str	r3, [r1, #12]
  40289c:	6099      	str	r1, [r3, #8]
  40289e:	e7dc      	b.n	40285a <_realloc_r+0x122>
  4028a0:	9a01      	ldr	r2, [sp, #4]
  4028a2:	428a      	cmp	r2, r1
  4028a4:	db47      	blt.n	402936 <_realloc_r+0x1fe>
  4028a6:	461f      	mov	r7, r3
  4028a8:	68d9      	ldr	r1, [r3, #12]
  4028aa:	1f32      	subs	r2, r6, #4
  4028ac:	f857 0f08 	ldr.w	r0, [r7, #8]!
  4028b0:	2a24      	cmp	r2, #36	; 0x24
  4028b2:	60c1      	str	r1, [r0, #12]
  4028b4:	6088      	str	r0, [r1, #8]
  4028b6:	f200 80b1 	bhi.w	402a1c <_realloc_r+0x2e4>
  4028ba:	2a13      	cmp	r2, #19
  4028bc:	bf9c      	itt	ls
  4028be:	4639      	movls	r1, r7
  4028c0:	4620      	movls	r0, r4
  4028c2:	d91f      	bls.n	402904 <_realloc_r+0x1cc>
  4028c4:	6821      	ldr	r1, [r4, #0]
  4028c6:	2a1b      	cmp	r2, #27
  4028c8:	bf98      	it	ls
  4028ca:	f104 0008 	addls.w	r0, r4, #8
  4028ce:	6099      	str	r1, [r3, #8]
  4028d0:	6861      	ldr	r1, [r4, #4]
  4028d2:	60d9      	str	r1, [r3, #12]
  4028d4:	bf98      	it	ls
  4028d6:	f103 0110 	addls.w	r1, r3, #16
  4028da:	d913      	bls.n	402904 <_realloc_r+0x1cc>
  4028dc:	68a1      	ldr	r1, [r4, #8]
  4028de:	2a24      	cmp	r2, #36	; 0x24
  4028e0:	bf14      	ite	ne
  4028e2:	f104 0010 	addne.w	r0, r4, #16
  4028e6:	f104 0018 	addeq.w	r0, r4, #24
  4028ea:	6119      	str	r1, [r3, #16]
  4028ec:	68e1      	ldr	r1, [r4, #12]
  4028ee:	6159      	str	r1, [r3, #20]
  4028f0:	bf11      	iteee	ne
  4028f2:	f103 0118 	addne.w	r1, r3, #24
  4028f6:	6922      	ldreq	r2, [r4, #16]
  4028f8:	f103 0120 	addeq.w	r1, r3, #32
  4028fc:	619a      	streq	r2, [r3, #24]
  4028fe:	bf04      	itt	eq
  402900:	6962      	ldreq	r2, [r4, #20]
  402902:	61da      	streq	r2, [r3, #28]
  402904:	6802      	ldr	r2, [r0, #0]
  402906:	463c      	mov	r4, r7
  402908:	f8dd 8004 	ldr.w	r8, [sp, #4]
  40290c:	e797      	b.n	40283e <_realloc_r+0x106>
  40290e:	eb0a 0105 	add.w	r1, sl, r5
  402912:	f002 0201 	and.w	r2, r2, #1
  402916:	18ce      	adds	r6, r1, r3
  402918:	4315      	orrs	r5, r2
  40291a:	f043 0301 	orr.w	r3, r3, #1
  40291e:	f8ca 5004 	str.w	r5, [sl, #4]
  402922:	604b      	str	r3, [r1, #4]
  402924:	4648      	mov	r0, r9
  402926:	6873      	ldr	r3, [r6, #4]
  402928:	3108      	adds	r1, #8
  40292a:	f043 0301 	orr.w	r3, r3, #1
  40292e:	6073      	str	r3, [r6, #4]
  402930:	f7fe fef4 	bl	40171c <_free_r>
  402934:	e7a1      	b.n	40287a <_realloc_r+0x142>
  402936:	4639      	mov	r1, r7
  402938:	4648      	mov	r0, r9
  40293a:	f7ff fa5d 	bl	401df8 <_malloc_r>
  40293e:	4607      	mov	r7, r0
  402940:	b1d8      	cbz	r0, 40297a <_realloc_r+0x242>
  402942:	f854 2c04 	ldr.w	r2, [r4, #-4]
  402946:	f1a0 0108 	sub.w	r1, r0, #8
  40294a:	f022 0301 	bic.w	r3, r2, #1
  40294e:	4453      	add	r3, sl
  402950:	4299      	cmp	r1, r3
  402952:	f000 80bf 	beq.w	402ad4 <_realloc_r+0x39c>
  402956:	1f32      	subs	r2, r6, #4
  402958:	2a24      	cmp	r2, #36	; 0x24
  40295a:	d86a      	bhi.n	402a32 <_realloc_r+0x2fa>
  40295c:	2a13      	cmp	r2, #19
  40295e:	bf9c      	itt	ls
  402960:	4603      	movls	r3, r0
  402962:	4622      	movls	r2, r4
  402964:	d839      	bhi.n	4029da <_realloc_r+0x2a2>
  402966:	6811      	ldr	r1, [r2, #0]
  402968:	6019      	str	r1, [r3, #0]
  40296a:	6851      	ldr	r1, [r2, #4]
  40296c:	6059      	str	r1, [r3, #4]
  40296e:	6892      	ldr	r2, [r2, #8]
  402970:	609a      	str	r2, [r3, #8]
  402972:	4648      	mov	r0, r9
  402974:	4621      	mov	r1, r4
  402976:	f7fe fed1 	bl	40171c <_free_r>
  40297a:	4648      	mov	r0, r9
  40297c:	f7ff feda 	bl	402734 <__malloc_unlock>
  402980:	e77f      	b.n	402882 <_realloc_r+0x14a>
  402982:	4611      	mov	r1, r2
  402984:	b003      	add	sp, #12
  402986:	e8bd 4ff0 	ldmia.w	sp!, {r4, r5, r6, r7, r8, r9, sl, fp, lr}
  40298a:	f7ff ba35 	b.w	401df8 <_malloc_r>
  40298e:	230c      	movs	r3, #12
  402990:	2700      	movs	r7, #0
  402992:	f8c9 3000 	str.w	r3, [r9]
  402996:	e774      	b.n	402882 <_realloc_r+0x14a>
  402998:	f8de 3004 	ldr.w	r3, [lr, #4]
  40299c:	f105 0010 	add.w	r0, r5, #16
  4029a0:	f023 0c03 	bic.w	ip, r3, #3
  4029a4:	eb0c 0306 	add.w	r3, ip, r6
  4029a8:	4283      	cmp	r3, r0
  4029aa:	bfb8      	it	lt
  4029ac:	4670      	movlt	r0, lr
  4029ae:	f6ff aefc 	blt.w	4027aa <_realloc_r+0x72>
  4029b2:	eb0a 0205 	add.w	r2, sl, r5
  4029b6:	1b5b      	subs	r3, r3, r5
  4029b8:	f043 0301 	orr.w	r3, r3, #1
  4029bc:	4648      	mov	r0, r9
  4029be:	6053      	str	r3, [r2, #4]
  4029c0:	4627      	mov	r7, r4
  4029c2:	f854 3c04 	ldr.w	r3, [r4, #-4]
  4029c6:	f8cb 2008 	str.w	r2, [fp, #8]
  4029ca:	f003 0301 	and.w	r3, r3, #1
  4029ce:	431d      	orrs	r5, r3
  4029d0:	f844 5c04 	str.w	r5, [r4, #-4]
  4029d4:	f7ff feae 	bl	402734 <__malloc_unlock>
  4029d8:	e753      	b.n	402882 <_realloc_r+0x14a>
  4029da:	6823      	ldr	r3, [r4, #0]
  4029dc:	2a1b      	cmp	r2, #27
  4029de:	bf98      	it	ls
  4029e0:	f104 0208 	addls.w	r2, r4, #8
  4029e4:	6003      	str	r3, [r0, #0]
  4029e6:	6863      	ldr	r3, [r4, #4]
  4029e8:	6043      	str	r3, [r0, #4]
  4029ea:	bf98      	it	ls
  4029ec:	f100 0308 	addls.w	r3, r0, #8
  4029f0:	d9b9      	bls.n	402966 <_realloc_r+0x22e>
  4029f2:	68a3      	ldr	r3, [r4, #8]
  4029f4:	2a24      	cmp	r2, #36	; 0x24
  4029f6:	bf14      	ite	ne
  4029f8:	f104 0210 	addne.w	r2, r4, #16
  4029fc:	f104 0218 	addeq.w	r2, r4, #24
  402a00:	6083      	str	r3, [r0, #8]
  402a02:	68e3      	ldr	r3, [r4, #12]
  402a04:	60c3      	str	r3, [r0, #12]
  402a06:	bf11      	iteee	ne
  402a08:	f100 0310 	addne.w	r3, r0, #16
  402a0c:	6921      	ldreq	r1, [r4, #16]
  402a0e:	f100 0318 	addeq.w	r3, r0, #24
  402a12:	6101      	streq	r1, [r0, #16]
  402a14:	bf04      	itt	eq
  402a16:	6961      	ldreq	r1, [r4, #20]
  402a18:	6141      	streq	r1, [r0, #20]
  402a1a:	e7a4      	b.n	402966 <_realloc_r+0x22e>
  402a1c:	4621      	mov	r1, r4
  402a1e:	4638      	mov	r0, r7
  402a20:	9300      	str	r3, [sp, #0]
  402a22:	f7ff fdb9 	bl	402598 <memmove>
  402a26:	e89d 0108 	ldmia.w	sp, {r3, r8}
  402a2a:	463c      	mov	r4, r7
  402a2c:	469a      	mov	sl, r3
  402a2e:	685a      	ldr	r2, [r3, #4]
  402a30:	e713      	b.n	40285a <_realloc_r+0x122>
  402a32:	4621      	mov	r1, r4
  402a34:	f7ff fdb0 	bl	402598 <memmove>
  402a38:	e79b      	b.n	402972 <_realloc_r+0x23a>
  402a3a:	9801      	ldr	r0, [sp, #4]
  402a3c:	f105 0210 	add.w	r2, r5, #16
  402a40:	eb0c 0800 	add.w	r8, ip, r0
  402a44:	4590      	cmp	r8, r2
  402a46:	f6ff af2b 	blt.w	4028a0 <_realloc_r+0x168>
  402a4a:	461f      	mov	r7, r3
  402a4c:	68d9      	ldr	r1, [r3, #12]
  402a4e:	1f32      	subs	r2, r6, #4
  402a50:	f857 0f08 	ldr.w	r0, [r7, #8]!
  402a54:	2a24      	cmp	r2, #36	; 0x24
  402a56:	60c1      	str	r1, [r0, #12]
  402a58:	6088      	str	r0, [r1, #8]
  402a5a:	d84b      	bhi.n	402af4 <_realloc_r+0x3bc>
  402a5c:	2a13      	cmp	r2, #19
  402a5e:	bf9c      	itt	ls
  402a60:	463a      	movls	r2, r7
  402a62:	4621      	movls	r1, r4
  402a64:	d91f      	bls.n	402aa6 <_realloc_r+0x36e>
  402a66:	6821      	ldr	r1, [r4, #0]
  402a68:	2a1b      	cmp	r2, #27
  402a6a:	bf98      	it	ls
  402a6c:	f103 0210 	addls.w	r2, r3, #16
  402a70:	6099      	str	r1, [r3, #8]
  402a72:	6861      	ldr	r1, [r4, #4]
  402a74:	60d9      	str	r1, [r3, #12]
  402a76:	bf98      	it	ls
  402a78:	f104 0108 	addls.w	r1, r4, #8
  402a7c:	d913      	bls.n	402aa6 <_realloc_r+0x36e>
  402a7e:	68a1      	ldr	r1, [r4, #8]
  402a80:	2a24      	cmp	r2, #36	; 0x24
  402a82:	bf14      	ite	ne
  402a84:	f103 0218 	addne.w	r2, r3, #24
  402a88:	f103 0220 	addeq.w	r2, r3, #32
  402a8c:	6119      	str	r1, [r3, #16]
  402a8e:	68e1      	ldr	r1, [r4, #12]
  402a90:	6159      	str	r1, [r3, #20]
  402a92:	bf11      	iteee	ne
  402a94:	f104 0110 	addne.w	r1, r4, #16
  402a98:	6920      	ldreq	r0, [r4, #16]
  402a9a:	f104 0118 	addeq.w	r1, r4, #24
  402a9e:	6198      	streq	r0, [r3, #24]
  402aa0:	bf04      	itt	eq
  402aa2:	6960      	ldreq	r0, [r4, #20]
  402aa4:	61d8      	streq	r0, [r3, #28]
  402aa6:	6808      	ldr	r0, [r1, #0]
  402aa8:	6010      	str	r0, [r2, #0]
  402aaa:	6848      	ldr	r0, [r1, #4]
  402aac:	6050      	str	r0, [r2, #4]
  402aae:	6889      	ldr	r1, [r1, #8]
  402ab0:	6091      	str	r1, [r2, #8]
  402ab2:	195a      	adds	r2, r3, r5
  402ab4:	ebc5 0108 	rsb	r1, r5, r8
  402ab8:	f041 0101 	orr.w	r1, r1, #1
  402abc:	4648      	mov	r0, r9
  402abe:	6051      	str	r1, [r2, #4]
  402ac0:	6859      	ldr	r1, [r3, #4]
  402ac2:	f8cb 2008 	str.w	r2, [fp, #8]
  402ac6:	f001 0101 	and.w	r1, r1, #1
  402aca:	430d      	orrs	r5, r1
  402acc:	605d      	str	r5, [r3, #4]
  402ace:	f7ff fe31 	bl	402734 <__malloc_unlock>
  402ad2:	e6d6      	b.n	402882 <_realloc_r+0x14a>
  402ad4:	f850 3c04 	ldr.w	r3, [r0, #-4]
  402ad8:	f023 0803 	bic.w	r8, r3, #3
  402adc:	44b0      	add	r8, r6
  402ade:	e6bc      	b.n	40285a <_realloc_r+0x122>
  402ae0:	4621      	mov	r1, r4
  402ae2:	4638      	mov	r0, r7
  402ae4:	9300      	str	r3, [sp, #0]
  402ae6:	f7ff fd57 	bl	402598 <memmove>
  402aea:	9b00      	ldr	r3, [sp, #0]
  402aec:	463c      	mov	r4, r7
  402aee:	469a      	mov	sl, r3
  402af0:	685a      	ldr	r2, [r3, #4]
  402af2:	e6b2      	b.n	40285a <_realloc_r+0x122>
  402af4:	4638      	mov	r0, r7
  402af6:	4621      	mov	r1, r4
  402af8:	9300      	str	r3, [sp, #0]
  402afa:	f7ff fd4d 	bl	402598 <memmove>
  402afe:	9b00      	ldr	r3, [sp, #0]
  402b00:	e7d7      	b.n	402ab2 <_realloc_r+0x37a>
  402b02:	bf00      	nop

00402b04 <_sbrk_r>:
  402b04:	b538      	push	{r3, r4, r5, lr}
  402b06:	f240 7400 	movw	r4, #1792	; 0x700
  402b0a:	f2c2 0400 	movt	r4, #8192	; 0x2000
  402b0e:	4605      	mov	r5, r0
  402b10:	4608      	mov	r0, r1
  402b12:	2300      	movs	r3, #0
  402b14:	6023      	str	r3, [r4, #0]
  402b16:	f001 f999 	bl	403e4c <_sbrk>
  402b1a:	1c43      	adds	r3, r0, #1
  402b1c:	d000      	beq.n	402b20 <_sbrk_r+0x1c>
  402b1e:	bd38      	pop	{r3, r4, r5, pc}
  402b20:	6823      	ldr	r3, [r4, #0]
  402b22:	2b00      	cmp	r3, #0
  402b24:	d0fb      	beq.n	402b1e <_sbrk_r+0x1a>
  402b26:	602b      	str	r3, [r5, #0]
  402b28:	bd38      	pop	{r3, r4, r5, pc}
  402b2a:	bf00      	nop

00402b2c <__sread>:
  402b2c:	b510      	push	{r4, lr}
  402b2e:	460c      	mov	r4, r1
  402b30:	f9b1 100e 	ldrsh.w	r1, [r1, #14]
  402b34:	f000 fb2c 	bl	403190 <_read_r>
  402b38:	2800      	cmp	r0, #0
  402b3a:	bfab      	itete	ge
  402b3c:	6d63      	ldrge	r3, [r4, #84]	; 0x54
  402b3e:	89a3      	ldrhlt	r3, [r4, #12]
  402b40:	181b      	addge	r3, r3, r0
  402b42:	f423 5380 	biclt.w	r3, r3, #4096	; 0x1000
  402b46:	bfac      	ite	ge
  402b48:	6563      	strge	r3, [r4, #84]	; 0x54
  402b4a:	81a3      	strhlt	r3, [r4, #12]
  402b4c:	bd10      	pop	{r4, pc}
  402b4e:	bf00      	nop

00402b50 <__seofread>:
  402b50:	2000      	movs	r0, #0
  402b52:	4770      	bx	lr

00402b54 <__swrite>:
  402b54:	e92d 41f0 	stmdb	sp!, {r4, r5, r6, r7, r8, lr}
  402b58:	460c      	mov	r4, r1
  402b5a:	8989      	ldrh	r1, [r1, #12]
  402b5c:	461d      	mov	r5, r3
  402b5e:	4607      	mov	r7, r0
  402b60:	4616      	mov	r6, r2
  402b62:	f401 7380 	and.w	r3, r1, #256	; 0x100
  402b66:	b21b      	sxth	r3, r3
  402b68:	b133      	cbz	r3, 402b78 <__swrite+0x24>
  402b6a:	f9b4 100e 	ldrsh.w	r1, [r4, #14]
  402b6e:	2200      	movs	r2, #0
  402b70:	2302      	movs	r3, #2
  402b72:	f000 faf7 	bl	403164 <_lseek_r>
  402b76:	89a1      	ldrh	r1, [r4, #12]
  402b78:	f421 5180 	bic.w	r1, r1, #4096	; 0x1000
  402b7c:	4638      	mov	r0, r7
  402b7e:	81a1      	strh	r1, [r4, #12]
  402b80:	4632      	mov	r2, r6
  402b82:	f9b4 100e 	ldrsh.w	r1, [r4, #14]
  402b86:	462b      	mov	r3, r5
  402b88:	e8bd 41f0 	ldmia.w	sp!, {r4, r5, r6, r7, r8, lr}
  402b8c:	f000 ba34 	b.w	402ff8 <_write_r>

00402b90 <__sseek>:
  402b90:	b510      	push	{r4, lr}
  402b92:	460c      	mov	r4, r1
  402b94:	f9b1 100e 	ldrsh.w	r1, [r1, #14]
  402b98:	f000 fae4 	bl	403164 <_lseek_r>
  402b9c:	89a3      	ldrh	r3, [r4, #12]
  402b9e:	1c42      	adds	r2, r0, #1
  402ba0:	bf16      	itet	ne
  402ba2:	6560      	strne	r0, [r4, #84]	; 0x54
  402ba4:	f423 5380 	biceq.w	r3, r3, #4096	; 0x1000
  402ba8:	f443 5380 	orrne.w	r3, r3, #4096	; 0x1000
  402bac:	81a3      	strh	r3, [r4, #12]
  402bae:	bd10      	pop	{r4, pc}

00402bb0 <__sclose>:
  402bb0:	f9b1 100e 	ldrsh.w	r1, [r1, #14]
  402bb4:	f000 ba36 	b.w	403024 <_close_r>

00402bb8 <strcmp>:
  402bb8:	ea80 0201 	eor.w	r2, r0, r1
  402bbc:	f012 0f03 	tst.w	r2, #3
  402bc0:	f040 803a 	bne.w	402c38 <strcmp_unaligned>
  402bc4:	f010 0203 	ands.w	r2, r0, #3
  402bc8:	f020 0003 	bic.w	r0, r0, #3
  402bcc:	f021 0103 	bic.w	r1, r1, #3
  402bd0:	f850 cb04 	ldr.w	ip, [r0], #4
  402bd4:	bf08      	it	eq
  402bd6:	f851 3b04 	ldreq.w	r3, [r1], #4
  402bda:	d00d      	beq.n	402bf8 <strcmp+0x40>
  402bdc:	f082 0203 	eor.w	r2, r2, #3
  402be0:	ea4f 02c2 	mov.w	r2, r2, lsl #3
  402be4:	f06f 437f 	mvn.w	r3, #4278190080	; 0xff000000
  402be8:	fa23 f202 	lsr.w	r2, r3, r2
  402bec:	f851 3b04 	ldr.w	r3, [r1], #4
  402bf0:	ea4c 0c02 	orr.w	ip, ip, r2
  402bf4:	ea43 0302 	orr.w	r3, r3, r2
  402bf8:	f1ac 3201 	sub.w	r2, ip, #16843009	; 0x1010101
  402bfc:	459c      	cmp	ip, r3
  402bfe:	bf01      	itttt	eq
  402c00:	ea22 020c 	biceq.w	r2, r2, ip
  402c04:	f012 3f80 	tsteq.w	r2, #2155905152	; 0x80808080
  402c08:	f850 cb04 	ldreq.w	ip, [r0], #4
  402c0c:	f851 3b04 	ldreq.w	r3, [r1], #4
  402c10:	d0f2      	beq.n	402bf8 <strcmp+0x40>
  402c12:	ea4f 600c 	mov.w	r0, ip, lsl #24
  402c16:	ea4f 2c1c 	mov.w	ip, ip, lsr #8
  402c1a:	2801      	cmp	r0, #1
  402c1c:	bf28      	it	cs
  402c1e:	ebb0 6f03 	cmpcs.w	r0, r3, lsl #24
  402c22:	bf08      	it	eq
  402c24:	0a1b      	lsreq	r3, r3, #8
  402c26:	d0f4      	beq.n	402c12 <strcmp+0x5a>
  402c28:	f003 03ff 	and.w	r3, r3, #255	; 0xff
  402c2c:	ea4f 6010 	mov.w	r0, r0, lsr #24
  402c30:	eba0 0003 	sub.w	r0, r0, r3
  402c34:	4770      	bx	lr
  402c36:	bf00      	nop

00402c38 <strcmp_unaligned>:
  402c38:	f010 0f03 	tst.w	r0, #3
  402c3c:	d00a      	beq.n	402c54 <strcmp_unaligned+0x1c>
  402c3e:	f810 2b01 	ldrb.w	r2, [r0], #1
  402c42:	f811 3b01 	ldrb.w	r3, [r1], #1
  402c46:	2a01      	cmp	r2, #1
  402c48:	bf28      	it	cs
  402c4a:	429a      	cmpcs	r2, r3
  402c4c:	d0f4      	beq.n	402c38 <strcmp_unaligned>
  402c4e:	eba2 0003 	sub.w	r0, r2, r3
  402c52:	4770      	bx	lr
  402c54:	f84d 5d04 	str.w	r5, [sp, #-4]!
  402c58:	f84d 4d04 	str.w	r4, [sp, #-4]!
  402c5c:	f04f 0201 	mov.w	r2, #1
  402c60:	ea42 2202 	orr.w	r2, r2, r2, lsl #8
  402c64:	ea42 4202 	orr.w	r2, r2, r2, lsl #16
  402c68:	f001 0c03 	and.w	ip, r1, #3
  402c6c:	f021 0103 	bic.w	r1, r1, #3
  402c70:	f850 4b04 	ldr.w	r4, [r0], #4
  402c74:	f851 5b04 	ldr.w	r5, [r1], #4
  402c78:	f1bc 0f02 	cmp.w	ip, #2
  402c7c:	d026      	beq.n	402ccc <strcmp_unaligned+0x94>
  402c7e:	d84b      	bhi.n	402d18 <strcmp_unaligned+0xe0>
  402c80:	f024 4c7f 	bic.w	ip, r4, #4278190080	; 0xff000000
  402c84:	ebbc 2f15 	cmp.w	ip, r5, lsr #8
  402c88:	eba4 0302 	sub.w	r3, r4, r2
  402c8c:	ea23 0304 	bic.w	r3, r3, r4
  402c90:	d10d      	bne.n	402cae <strcmp_unaligned+0x76>
  402c92:	ea13 13c2 	ands.w	r3, r3, r2, lsl #7
  402c96:	bf08      	it	eq
  402c98:	f851 5b04 	ldreq.w	r5, [r1], #4
  402c9c:	d10a      	bne.n	402cb4 <strcmp_unaligned+0x7c>
  402c9e:	ea8c 0c04 	eor.w	ip, ip, r4
  402ca2:	ebbc 6f05 	cmp.w	ip, r5, lsl #24
  402ca6:	d10c      	bne.n	402cc2 <strcmp_unaligned+0x8a>
  402ca8:	f850 4b04 	ldr.w	r4, [r0], #4
  402cac:	e7e8      	b.n	402c80 <strcmp_unaligned+0x48>
  402cae:	ea4f 2515 	mov.w	r5, r5, lsr #8
  402cb2:	e05c      	b.n	402d6e <strcmp_unaligned+0x136>
  402cb4:	f033 437f 	bics.w	r3, r3, #4278190080	; 0xff000000
  402cb8:	d152      	bne.n	402d60 <strcmp_unaligned+0x128>
  402cba:	780d      	ldrb	r5, [r1, #0]
  402cbc:	ea4f 6c14 	mov.w	ip, r4, lsr #24
  402cc0:	e055      	b.n	402d6e <strcmp_unaligned+0x136>
  402cc2:	ea4f 6c14 	mov.w	ip, r4, lsr #24
  402cc6:	f005 05ff 	and.w	r5, r5, #255	; 0xff
  402cca:	e050      	b.n	402d6e <strcmp_unaligned+0x136>
  402ccc:	ea4f 4c04 	mov.w	ip, r4, lsl #16
  402cd0:	eba4 0302 	sub.w	r3, r4, r2
  402cd4:	ea4f 4c1c 	mov.w	ip, ip, lsr #16
  402cd8:	ea23 0304 	bic.w	r3, r3, r4
  402cdc:	ebbc 4f15 	cmp.w	ip, r5, lsr #16
  402ce0:	d117      	bne.n	402d12 <strcmp_unaligned+0xda>
  402ce2:	ea13 13c2 	ands.w	r3, r3, r2, lsl #7
  402ce6:	bf08      	it	eq
  402ce8:	f851 5b04 	ldreq.w	r5, [r1], #4
  402cec:	d107      	bne.n	402cfe <strcmp_unaligned+0xc6>
  402cee:	ea8c 0c04 	eor.w	ip, ip, r4
  402cf2:	ebbc 4f05 	cmp.w	ip, r5, lsl #16
  402cf6:	d108      	bne.n	402d0a <strcmp_unaligned+0xd2>
  402cf8:	f850 4b04 	ldr.w	r4, [r0], #4
  402cfc:	e7e6      	b.n	402ccc <strcmp_unaligned+0x94>
  402cfe:	041b      	lsls	r3, r3, #16
  402d00:	d12e      	bne.n	402d60 <strcmp_unaligned+0x128>
  402d02:	880d      	ldrh	r5, [r1, #0]
  402d04:	ea4f 4c14 	mov.w	ip, r4, lsr #16
  402d08:	e031      	b.n	402d6e <strcmp_unaligned+0x136>
  402d0a:	ea4f 4505 	mov.w	r5, r5, lsl #16
  402d0e:	ea4f 4c14 	mov.w	ip, r4, lsr #16
  402d12:	ea4f 4515 	mov.w	r5, r5, lsr #16
  402d16:	e02a      	b.n	402d6e <strcmp_unaligned+0x136>
  402d18:	f004 0cff 	and.w	ip, r4, #255	; 0xff
  402d1c:	ebbc 6f15 	cmp.w	ip, r5, lsr #24
  402d20:	eba4 0302 	sub.w	r3, r4, r2
  402d24:	ea23 0304 	bic.w	r3, r3, r4
  402d28:	d10d      	bne.n	402d46 <strcmp_unaligned+0x10e>
  402d2a:	ea13 13c2 	ands.w	r3, r3, r2, lsl #7
  402d2e:	bf08      	it	eq
  402d30:	f851 5b04 	ldreq.w	r5, [r1], #4
  402d34:	d10a      	bne.n	402d4c <strcmp_unaligned+0x114>
  402d36:	ea8c 0c04 	eor.w	ip, ip, r4
  402d3a:	ebbc 2f05 	cmp.w	ip, r5, lsl #8
  402d3e:	d10a      	bne.n	402d56 <strcmp_unaligned+0x11e>
  402d40:	f850 4b04 	ldr.w	r4, [r0], #4
  402d44:	e7e8      	b.n	402d18 <strcmp_unaligned+0xe0>
  402d46:	ea4f 6515 	mov.w	r5, r5, lsr #24
  402d4a:	e010      	b.n	402d6e <strcmp_unaligned+0x136>
  402d4c:	f014 0fff 	tst.w	r4, #255	; 0xff
  402d50:	d006      	beq.n	402d60 <strcmp_unaligned+0x128>
  402d52:	f851 5b04 	ldr.w	r5, [r1], #4
  402d56:	ea4f 2c14 	mov.w	ip, r4, lsr #8
  402d5a:	f025 457f 	bic.w	r5, r5, #4278190080	; 0xff000000
  402d5e:	e006      	b.n	402d6e <strcmp_unaligned+0x136>
  402d60:	f04f 0000 	mov.w	r0, #0
  402d64:	f85d 4b04 	ldr.w	r4, [sp], #4
  402d68:	f85d 5b04 	ldr.w	r5, [sp], #4
  402d6c:	4770      	bx	lr
  402d6e:	f00c 02ff 	and.w	r2, ip, #255	; 0xff
  402d72:	f005 00ff 	and.w	r0, r5, #255	; 0xff
  402d76:	2801      	cmp	r0, #1
  402d78:	bf28      	it	cs
  402d7a:	4290      	cmpcs	r0, r2
  402d7c:	bf04      	itt	eq
  402d7e:	ea4f 2c1c 	moveq.w	ip, ip, lsr #8
  402d82:	0a2d      	lsreq	r5, r5, #8
  402d84:	d0f3      	beq.n	402d6e <strcmp_unaligned+0x136>
  402d86:	eba2 0000 	sub.w	r0, r2, r0
  402d8a:	f85d 4b04 	ldr.w	r4, [sp], #4
  402d8e:	f85d 5b04 	ldr.w	r5, [sp], #4
  402d92:	4770      	bx	lr

00402d94 <strlen>:
  402d94:	f020 0103 	bic.w	r1, r0, #3
  402d98:	f010 0003 	ands.w	r0, r0, #3
  402d9c:	f1c0 0000 	rsb	r0, r0, #0
  402da0:	f851 3b04 	ldr.w	r3, [r1], #4
  402da4:	f100 0c04 	add.w	ip, r0, #4
  402da8:	ea4f 0ccc 	mov.w	ip, ip, lsl #3
  402dac:	f06f 0200 	mvn.w	r2, #0
  402db0:	bf1c      	itt	ne
  402db2:	fa22 f20c 	lsrne.w	r2, r2, ip
  402db6:	4313      	orrne	r3, r2
  402db8:	f04f 0c01 	mov.w	ip, #1
  402dbc:	ea4c 2c0c 	orr.w	ip, ip, ip, lsl #8
  402dc0:	ea4c 4c0c 	orr.w	ip, ip, ip, lsl #16
  402dc4:	eba3 020c 	sub.w	r2, r3, ip
  402dc8:	ea22 0203 	bic.w	r2, r2, r3
  402dcc:	ea12 12cc 	ands.w	r2, r2, ip, lsl #7
  402dd0:	bf04      	itt	eq
  402dd2:	f851 3b04 	ldreq.w	r3, [r1], #4
  402dd6:	3004      	addeq	r0, #4
  402dd8:	d0f4      	beq.n	402dc4 <strlen+0x30>
  402dda:	f013 0fff 	tst.w	r3, #255	; 0xff
  402dde:	bf1f      	itttt	ne
  402de0:	3001      	addne	r0, #1
  402de2:	f413 4f7f 	tstne.w	r3, #65280	; 0xff00
  402de6:	3001      	addne	r0, #1
  402de8:	f413 0f7f 	tstne.w	r3, #16711680	; 0xff0000
  402dec:	bf18      	it	ne
  402dee:	3001      	addne	r0, #1
  402df0:	4770      	bx	lr
  402df2:	bf00      	nop

00402df4 <__swbuf_r>:
  402df4:	b570      	push	{r4, r5, r6, lr}
  402df6:	460d      	mov	r5, r1
  402df8:	4614      	mov	r4, r2
  402dfa:	4606      	mov	r6, r0
  402dfc:	b110      	cbz	r0, 402e04 <__swbuf_r+0x10>
  402dfe:	6983      	ldr	r3, [r0, #24]
  402e00:	2b00      	cmp	r3, #0
  402e02:	d061      	beq.n	402ec8 <__swbuf_r+0xd4>
  402e04:	f247 3334 	movw	r3, #29492	; 0x7334
  402e08:	f2c0 0340 	movt	r3, #64	; 0x40
  402e0c:	429c      	cmp	r4, r3
  402e0e:	bf08      	it	eq
  402e10:	6874      	ldreq	r4, [r6, #4]
  402e12:	d00e      	beq.n	402e32 <__swbuf_r+0x3e>
  402e14:	f247 3314 	movw	r3, #29460	; 0x7314
  402e18:	f2c0 0340 	movt	r3, #64	; 0x40
  402e1c:	429c      	cmp	r4, r3
  402e1e:	bf08      	it	eq
  402e20:	68b4      	ldreq	r4, [r6, #8]
  402e22:	d006      	beq.n	402e32 <__swbuf_r+0x3e>
  402e24:	f247 23f4 	movw	r3, #29428	; 0x72f4
  402e28:	f2c0 0340 	movt	r3, #64	; 0x40
  402e2c:	429c      	cmp	r4, r3
  402e2e:	bf08      	it	eq
  402e30:	68f4      	ldreq	r4, [r6, #12]
  402e32:	89a3      	ldrh	r3, [r4, #12]
  402e34:	69a2      	ldr	r2, [r4, #24]
  402e36:	f003 0008 	and.w	r0, r3, #8
  402e3a:	b200      	sxth	r0, r0
  402e3c:	60a2      	str	r2, [r4, #8]
  402e3e:	2800      	cmp	r0, #0
  402e40:	d03a      	beq.n	402eb8 <__swbuf_r+0xc4>
  402e42:	6922      	ldr	r2, [r4, #16]
  402e44:	2a00      	cmp	r2, #0
  402e46:	d037      	beq.n	402eb8 <__swbuf_r+0xc4>
  402e48:	f403 5100 	and.w	r1, r3, #8192	; 0x2000
  402e4c:	b2ed      	uxtb	r5, r5
  402e4e:	b209      	sxth	r1, r1
  402e50:	b1a9      	cbz	r1, 402e7e <__swbuf_r+0x8a>
  402e52:	6823      	ldr	r3, [r4, #0]
  402e54:	6961      	ldr	r1, [r4, #20]
  402e56:	1a9a      	subs	r2, r3, r2
  402e58:	428a      	cmp	r2, r1
  402e5a:	da1c      	bge.n	402e96 <__swbuf_r+0xa2>
  402e5c:	3201      	adds	r2, #1
  402e5e:	68a1      	ldr	r1, [r4, #8]
  402e60:	3901      	subs	r1, #1
  402e62:	60a1      	str	r1, [r4, #8]
  402e64:	f803 5b01 	strb.w	r5, [r3], #1
  402e68:	6961      	ldr	r1, [r4, #20]
  402e6a:	6023      	str	r3, [r4, #0]
  402e6c:	4291      	cmp	r1, r2
  402e6e:	d01a      	beq.n	402ea6 <__swbuf_r+0xb2>
  402e70:	89a3      	ldrh	r3, [r4, #12]
  402e72:	07db      	lsls	r3, r3, #31
  402e74:	d501      	bpl.n	402e7a <__swbuf_r+0x86>
  402e76:	2d0a      	cmp	r5, #10
  402e78:	d015      	beq.n	402ea6 <__swbuf_r+0xb2>
  402e7a:	4628      	mov	r0, r5
  402e7c:	bd70      	pop	{r4, r5, r6, pc}
  402e7e:	6e61      	ldr	r1, [r4, #100]	; 0x64
  402e80:	f443 5300 	orr.w	r3, r3, #8192	; 0x2000
  402e84:	81a3      	strh	r3, [r4, #12]
  402e86:	6823      	ldr	r3, [r4, #0]
  402e88:	f421 5100 	bic.w	r1, r1, #8192	; 0x2000
  402e8c:	6661      	str	r1, [r4, #100]	; 0x64
  402e8e:	6961      	ldr	r1, [r4, #20]
  402e90:	1a9a      	subs	r2, r3, r2
  402e92:	428a      	cmp	r2, r1
  402e94:	dbe2      	blt.n	402e5c <__swbuf_r+0x68>
  402e96:	4630      	mov	r0, r6
  402e98:	4621      	mov	r1, r4
  402e9a:	f7fe f993 	bl	4011c4 <_fflush_r>
  402e9e:	b940      	cbnz	r0, 402eb2 <__swbuf_r+0xbe>
  402ea0:	6823      	ldr	r3, [r4, #0]
  402ea2:	2201      	movs	r2, #1
  402ea4:	e7db      	b.n	402e5e <__swbuf_r+0x6a>
  402ea6:	4630      	mov	r0, r6
  402ea8:	4621      	mov	r1, r4
  402eaa:	f7fe f98b 	bl	4011c4 <_fflush_r>
  402eae:	2800      	cmp	r0, #0
  402eb0:	d0e3      	beq.n	402e7a <__swbuf_r+0x86>
  402eb2:	f04f 35ff 	mov.w	r5, #4294967295
  402eb6:	e7e0      	b.n	402e7a <__swbuf_r+0x86>
  402eb8:	4630      	mov	r0, r6
  402eba:	4621      	mov	r1, r4
  402ebc:	f7fe f900 	bl	4010c0 <__swsetup_r>
  402ec0:	89a3      	ldrh	r3, [r4, #12]
  402ec2:	b920      	cbnz	r0, 402ece <__swbuf_r+0xda>
  402ec4:	6922      	ldr	r2, [r4, #16]
  402ec6:	e7bf      	b.n	402e48 <__swbuf_r+0x54>
  402ec8:	f7fe faae 	bl	401428 <__sinit>
  402ecc:	e79a      	b.n	402e04 <__swbuf_r+0x10>
  402ece:	f043 0340 	orr.w	r3, r3, #64	; 0x40
  402ed2:	f04f 35ff 	mov.w	r5, #4294967295
  402ed6:	81a3      	strh	r3, [r4, #12]
  402ed8:	2309      	movs	r3, #9
  402eda:	6033      	str	r3, [r6, #0]
  402edc:	e7cd      	b.n	402e7a <__swbuf_r+0x86>
  402ede:	bf00      	nop

00402ee0 <__swbuf>:
  402ee0:	f240 0304 	movw	r3, #4
  402ee4:	460a      	mov	r2, r1
  402ee6:	f2c2 0300 	movt	r3, #8192	; 0x2000
  402eea:	4601      	mov	r1, r0
  402eec:	6818      	ldr	r0, [r3, #0]
  402eee:	f7ff bf81 	b.w	402df4 <__swbuf_r>
  402ef2:	bf00      	nop

00402ef4 <_wcrtomb_r>:
  402ef4:	e92d 41f0 	stmdb	sp!, {r4, r5, r6, r7, r8, lr}
  402ef8:	460d      	mov	r5, r1
  402efa:	b086      	sub	sp, #24
  402efc:	4606      	mov	r6, r0
  402efe:	4690      	mov	r8, r2
  402f00:	461f      	mov	r7, r3
  402f02:	b1a9      	cbz	r1, 402f30 <_wcrtomb_r+0x3c>
  402f04:	f240 5484 	movw	r4, #1412	; 0x584
  402f08:	f2c2 0400 	movt	r4, #8192	; 0x2000
  402f0c:	6824      	ldr	r4, [r4, #0]
  402f0e:	f7fe fed7 	bl	401cc0 <__locale_charset>
  402f12:	9700      	str	r7, [sp, #0]
  402f14:	4629      	mov	r1, r5
  402f16:	4642      	mov	r2, r8
  402f18:	4603      	mov	r3, r0
  402f1a:	4630      	mov	r0, r6
  402f1c:	47a0      	blx	r4
  402f1e:	1c43      	adds	r3, r0, #1
  402f20:	d103      	bne.n	402f2a <_wcrtomb_r+0x36>
  402f22:	2300      	movs	r3, #0
  402f24:	603b      	str	r3, [r7, #0]
  402f26:	238a      	movs	r3, #138	; 0x8a
  402f28:	6033      	str	r3, [r6, #0]
  402f2a:	b006      	add	sp, #24
  402f2c:	e8bd 81f0 	ldmia.w	sp!, {r4, r5, r6, r7, r8, pc}
  402f30:	f240 5384 	movw	r3, #1412	; 0x584
  402f34:	f2c2 0300 	movt	r3, #8192	; 0x2000
  402f38:	681c      	ldr	r4, [r3, #0]
  402f3a:	f7fe fec1 	bl	401cc0 <__locale_charset>
  402f3e:	9700      	str	r7, [sp, #0]
  402f40:	a903      	add	r1, sp, #12
  402f42:	462a      	mov	r2, r5
  402f44:	4603      	mov	r3, r0
  402f46:	4630      	mov	r0, r6
  402f48:	47a0      	blx	r4
  402f4a:	e7e8      	b.n	402f1e <_wcrtomb_r+0x2a>

00402f4c <wcrtomb>:
  402f4c:	e92d 43f0 	stmdb	sp!, {r4, r5, r6, r7, r8, r9, lr}
  402f50:	f240 5384 	movw	r3, #1412	; 0x584
  402f54:	f240 0404 	movw	r4, #4
  402f58:	b087      	sub	sp, #28
  402f5a:	4605      	mov	r5, r0
  402f5c:	460f      	mov	r7, r1
  402f5e:	4616      	mov	r6, r2
  402f60:	f2c2 0400 	movt	r4, #8192	; 0x2000
  402f64:	f2c2 0300 	movt	r3, #8192	; 0x2000
  402f68:	b1a8      	cbz	r0, 402f96 <wcrtomb+0x4a>
  402f6a:	f8d4 9000 	ldr.w	r9, [r4]
  402f6e:	f8d3 8000 	ldr.w	r8, [r3]
  402f72:	f7fe fea5 	bl	401cc0 <__locale_charset>
  402f76:	9600      	str	r6, [sp, #0]
  402f78:	4629      	mov	r1, r5
  402f7a:	463a      	mov	r2, r7
  402f7c:	4603      	mov	r3, r0
  402f7e:	4648      	mov	r0, r9
  402f80:	47c0      	blx	r8
  402f82:	1c42      	adds	r2, r0, #1
  402f84:	d104      	bne.n	402f90 <wcrtomb+0x44>
  402f86:	6823      	ldr	r3, [r4, #0]
  402f88:	2200      	movs	r2, #0
  402f8a:	6032      	str	r2, [r6, #0]
  402f8c:	228a      	movs	r2, #138	; 0x8a
  402f8e:	601a      	str	r2, [r3, #0]
  402f90:	b007      	add	sp, #28
  402f92:	e8bd 83f0 	ldmia.w	sp!, {r4, r5, r6, r7, r8, r9, pc}
  402f96:	f8d4 8000 	ldr.w	r8, [r4]
  402f9a:	681f      	ldr	r7, [r3, #0]
  402f9c:	f7fe fe90 	bl	401cc0 <__locale_charset>
  402fa0:	9600      	str	r6, [sp, #0]
  402fa2:	a903      	add	r1, sp, #12
  402fa4:	462a      	mov	r2, r5
  402fa6:	4603      	mov	r3, r0
  402fa8:	4640      	mov	r0, r8
  402faa:	47b8      	blx	r7
  402fac:	e7e9      	b.n	402f82 <wcrtomb+0x36>
  402fae:	bf00      	nop

00402fb0 <__ascii_wctomb>:
  402fb0:	b119      	cbz	r1, 402fba <__ascii_wctomb+0xa>
  402fb2:	2aff      	cmp	r2, #255	; 0xff
  402fb4:	d803      	bhi.n	402fbe <__ascii_wctomb+0xe>
  402fb6:	700a      	strb	r2, [r1, #0]
  402fb8:	2101      	movs	r1, #1
  402fba:	4608      	mov	r0, r1
  402fbc:	4770      	bx	lr
  402fbe:	238a      	movs	r3, #138	; 0x8a
  402fc0:	f04f 31ff 	mov.w	r1, #4294967295
  402fc4:	6003      	str	r3, [r0, #0]
  402fc6:	e7f8      	b.n	402fba <__ascii_wctomb+0xa>

00402fc8 <_wctomb_r>:
  402fc8:	e92d 41f0 	stmdb	sp!, {r4, r5, r6, r7, r8, lr}
  402fcc:	f240 5484 	movw	r4, #1412	; 0x584
  402fd0:	f2c2 0400 	movt	r4, #8192	; 0x2000
  402fd4:	b082      	sub	sp, #8
  402fd6:	461d      	mov	r5, r3
  402fd8:	4606      	mov	r6, r0
  402fda:	4688      	mov	r8, r1
  402fdc:	4617      	mov	r7, r2
  402fde:	6824      	ldr	r4, [r4, #0]
  402fe0:	f7fe fe6e 	bl	401cc0 <__locale_charset>
  402fe4:	9500      	str	r5, [sp, #0]
  402fe6:	4641      	mov	r1, r8
  402fe8:	463a      	mov	r2, r7
  402fea:	4603      	mov	r3, r0
  402fec:	4630      	mov	r0, r6
  402fee:	47a0      	blx	r4
  402ff0:	b002      	add	sp, #8
  402ff2:	e8bd 81f0 	ldmia.w	sp!, {r4, r5, r6, r7, r8, pc}
  402ff6:	bf00      	nop

00402ff8 <_write_r>:
  402ff8:	b538      	push	{r3, r4, r5, lr}
  402ffa:	f240 7400 	movw	r4, #1792	; 0x700
  402ffe:	f2c2 0400 	movt	r4, #8192	; 0x2000
  403002:	4605      	mov	r5, r0
  403004:	4608      	mov	r0, r1
  403006:	4611      	mov	r1, r2
  403008:	461a      	mov	r2, r3
  40300a:	2300      	movs	r3, #0
  40300c:	6023      	str	r3, [r4, #0]
  40300e:	f000 ff83 	bl	403f18 <_write>
  403012:	1c43      	adds	r3, r0, #1
  403014:	d000      	beq.n	403018 <_write_r+0x20>
  403016:	bd38      	pop	{r3, r4, r5, pc}
  403018:	6823      	ldr	r3, [r4, #0]
  40301a:	2b00      	cmp	r3, #0
  40301c:	d0fb      	beq.n	403016 <_write_r+0x1e>
  40301e:	602b      	str	r3, [r5, #0]
  403020:	bd38      	pop	{r3, r4, r5, pc}
  403022:	bf00      	nop

00403024 <_close_r>:
  403024:	b538      	push	{r3, r4, r5, lr}
  403026:	f240 7400 	movw	r4, #1792	; 0x700
  40302a:	f2c2 0400 	movt	r4, #8192	; 0x2000
  40302e:	4605      	mov	r5, r0
  403030:	4608      	mov	r0, r1
  403032:	2300      	movs	r3, #0
  403034:	6023      	str	r3, [r4, #0]
  403036:	f000 ff29 	bl	403e8c <_close>
  40303a:	1c43      	adds	r3, r0, #1
  40303c:	d000      	beq.n	403040 <_close_r+0x1c>
  40303e:	bd38      	pop	{r3, r4, r5, pc}
  403040:	6823      	ldr	r3, [r4, #0]
  403042:	2b00      	cmp	r3, #0
  403044:	d0fb      	beq.n	40303e <_close_r+0x1a>
  403046:	602b      	str	r3, [r5, #0]
  403048:	bd38      	pop	{r3, r4, r5, pc}
  40304a:	bf00      	nop

0040304c <_fclose_r>:
  40304c:	b570      	push	{r4, r5, r6, lr}
  40304e:	460c      	mov	r4, r1
  403050:	4605      	mov	r5, r0
  403052:	460e      	mov	r6, r1
  403054:	2900      	cmp	r1, #0
  403056:	d049      	beq.n	4030ec <_fclose_r+0xa0>
  403058:	f7fe fa58 	bl	40150c <__sfp_lock_acquire>
  40305c:	b115      	cbz	r5, 403064 <_fclose_r+0x18>
  40305e:	69ab      	ldr	r3, [r5, #24]
  403060:	2b00      	cmp	r3, #0
  403062:	d045      	beq.n	4030f0 <_fclose_r+0xa4>
  403064:	f247 3334 	movw	r3, #29492	; 0x7334
  403068:	f2c0 0340 	movt	r3, #64	; 0x40
  40306c:	429c      	cmp	r4, r3
  40306e:	bf08      	it	eq
  403070:	686c      	ldreq	r4, [r5, #4]
  403072:	d00e      	beq.n	403092 <_fclose_r+0x46>
  403074:	f247 3314 	movw	r3, #29460	; 0x7314
  403078:	f2c0 0340 	movt	r3, #64	; 0x40
  40307c:	429c      	cmp	r4, r3
  40307e:	bf08      	it	eq
  403080:	68ac      	ldreq	r4, [r5, #8]
  403082:	d006      	beq.n	403092 <_fclose_r+0x46>
  403084:	f247 23f4 	movw	r3, #29428	; 0x72f4
  403088:	f2c0 0340 	movt	r3, #64	; 0x40
  40308c:	429c      	cmp	r4, r3
  40308e:	bf08      	it	eq
  403090:	68ec      	ldreq	r4, [r5, #12]
  403092:	f9b4 600c 	ldrsh.w	r6, [r4, #12]
  403096:	b33e      	cbz	r6, 4030e8 <_fclose_r+0x9c>
  403098:	4628      	mov	r0, r5
  40309a:	4621      	mov	r1, r4
  40309c:	f7fe f892 	bl	4011c4 <_fflush_r>
  4030a0:	6b23      	ldr	r3, [r4, #48]	; 0x30
  4030a2:	4606      	mov	r6, r0
  4030a4:	b13b      	cbz	r3, 4030b6 <_fclose_r+0x6a>
  4030a6:	4628      	mov	r0, r5
  4030a8:	6a21      	ldr	r1, [r4, #32]
  4030aa:	4798      	blx	r3
  4030ac:	ea36 0620 	bics.w	r6, r6, r0, asr #32
  4030b0:	bf28      	it	cs
  4030b2:	f04f 36ff 	movcs.w	r6, #4294967295
  4030b6:	89a3      	ldrh	r3, [r4, #12]
  4030b8:	f003 0380 	and.w	r3, r3, #128	; 0x80
  4030bc:	b21b      	sxth	r3, r3
  4030be:	b9db      	cbnz	r3, 4030f8 <_fclose_r+0xac>
  4030c0:	6b61      	ldr	r1, [r4, #52]	; 0x34
  4030c2:	b141      	cbz	r1, 4030d6 <_fclose_r+0x8a>
  4030c4:	f104 0344 	add.w	r3, r4, #68	; 0x44
  4030c8:	4299      	cmp	r1, r3
  4030ca:	d002      	beq.n	4030d2 <_fclose_r+0x86>
  4030cc:	4628      	mov	r0, r5
  4030ce:	f7fe fb25 	bl	40171c <_free_r>
  4030d2:	2300      	movs	r3, #0
  4030d4:	6363      	str	r3, [r4, #52]	; 0x34
  4030d6:	6ca1      	ldr	r1, [r4, #72]	; 0x48
  4030d8:	b121      	cbz	r1, 4030e4 <_fclose_r+0x98>
  4030da:	4628      	mov	r0, r5
  4030dc:	f7fe fb1e 	bl	40171c <_free_r>
  4030e0:	2300      	movs	r3, #0
  4030e2:	64a3      	str	r3, [r4, #72]	; 0x48
  4030e4:	2300      	movs	r3, #0
  4030e6:	81a3      	strh	r3, [r4, #12]
  4030e8:	f7fe fa12 	bl	401510 <__sfp_lock_release>
  4030ec:	4630      	mov	r0, r6
  4030ee:	bd70      	pop	{r4, r5, r6, pc}
  4030f0:	4628      	mov	r0, r5
  4030f2:	f7fe f999 	bl	401428 <__sinit>
  4030f6:	e7b5      	b.n	403064 <_fclose_r+0x18>
  4030f8:	4628      	mov	r0, r5
  4030fa:	6921      	ldr	r1, [r4, #16]
  4030fc:	f7fe fb0e 	bl	40171c <_free_r>
  403100:	e7de      	b.n	4030c0 <_fclose_r+0x74>
  403102:	bf00      	nop

00403104 <fclose>:
  403104:	f240 0304 	movw	r3, #4
  403108:	4601      	mov	r1, r0
  40310a:	f2c2 0300 	movt	r3, #8192	; 0x2000
  40310e:	6818      	ldr	r0, [r3, #0]
  403110:	f7ff bf9c 	b.w	40304c <_fclose_r>

00403114 <_fstat_r>:
  403114:	b538      	push	{r3, r4, r5, lr}
  403116:	f240 7400 	movw	r4, #1792	; 0x700
  40311a:	f2c2 0400 	movt	r4, #8192	; 0x2000
  40311e:	4605      	mov	r5, r0
  403120:	4608      	mov	r0, r1
  403122:	4611      	mov	r1, r2
  403124:	2300      	movs	r3, #0
  403126:	6023      	str	r3, [r4, #0]
  403128:	f000 febc 	bl	403ea4 <_fstat>
  40312c:	1c43      	adds	r3, r0, #1
  40312e:	d000      	beq.n	403132 <_fstat_r+0x1e>
  403130:	bd38      	pop	{r3, r4, r5, pc}
  403132:	6823      	ldr	r3, [r4, #0]
  403134:	2b00      	cmp	r3, #0
  403136:	d0fb      	beq.n	403130 <_fstat_r+0x1c>
  403138:	602b      	str	r3, [r5, #0]
  40313a:	bd38      	pop	{r3, r4, r5, pc}

0040313c <_isatty_r>:
  40313c:	b538      	push	{r3, r4, r5, lr}
  40313e:	f240 7400 	movw	r4, #1792	; 0x700
  403142:	f2c2 0400 	movt	r4, #8192	; 0x2000
  403146:	4605      	mov	r5, r0
  403148:	4608      	mov	r0, r1
  40314a:	2300      	movs	r3, #0
  40314c:	6023      	str	r3, [r4, #0]
  40314e:	f000 febb 	bl	403ec8 <_isatty>
  403152:	1c43      	adds	r3, r0, #1
  403154:	d000      	beq.n	403158 <_isatty_r+0x1c>
  403156:	bd38      	pop	{r3, r4, r5, pc}
  403158:	6823      	ldr	r3, [r4, #0]
  40315a:	2b00      	cmp	r3, #0
  40315c:	d0fb      	beq.n	403156 <_isatty_r+0x1a>
  40315e:	602b      	str	r3, [r5, #0]
  403160:	bd38      	pop	{r3, r4, r5, pc}
  403162:	bf00      	nop

00403164 <_lseek_r>:
  403164:	b538      	push	{r3, r4, r5, lr}
  403166:	f240 7400 	movw	r4, #1792	; 0x700
  40316a:	f2c2 0400 	movt	r4, #8192	; 0x2000
  40316e:	4605      	mov	r5, r0
  403170:	4608      	mov	r0, r1
  403172:	4611      	mov	r1, r2
  403174:	461a      	mov	r2, r3
  403176:	2300      	movs	r3, #0
  403178:	6023      	str	r3, [r4, #0]
  40317a:	f000 feb1 	bl	403ee0 <_lseek>
  40317e:	1c43      	adds	r3, r0, #1
  403180:	d000      	beq.n	403184 <_lseek_r+0x20>
  403182:	bd38      	pop	{r3, r4, r5, pc}
  403184:	6823      	ldr	r3, [r4, #0]
  403186:	2b00      	cmp	r3, #0
  403188:	d0fb      	beq.n	403182 <_lseek_r+0x1e>
  40318a:	602b      	str	r3, [r5, #0]
  40318c:	bd38      	pop	{r3, r4, r5, pc}
  40318e:	bf00      	nop

00403190 <_read_r>:
  403190:	b538      	push	{r3, r4, r5, lr}
  403192:	f240 7400 	movw	r4, #1792	; 0x700
  403196:	f2c2 0400 	movt	r4, #8192	; 0x2000
  40319a:	4605      	mov	r5, r0
  40319c:	4608      	mov	r0, r1
  40319e:	4611      	mov	r1, r2
  4031a0:	461a      	mov	r2, r3
  4031a2:	2300      	movs	r3, #0
  4031a4:	6023      	str	r3, [r4, #0]
  4031a6:	f000 fea9 	bl	403efc <_read>
  4031aa:	1c43      	adds	r3, r0, #1
  4031ac:	d000      	beq.n	4031b0 <_read_r+0x20>
  4031ae:	bd38      	pop	{r3, r4, r5, pc}
  4031b0:	6823      	ldr	r3, [r4, #0]
  4031b2:	2b00      	cmp	r3, #0
  4031b4:	d0fb      	beq.n	4031ae <_read_r+0x1e>
  4031b6:	602b      	str	r3, [r5, #0]
  4031b8:	bd38      	pop	{r3, r4, r5, pc}
  4031ba:	bf00      	nop

004031bc <PioInterruptHandler>:
 * \brief Handles all interrupts on the given PIO controller.
 * \param id  PIO controller ID.
 * \param pPio  PIO controller base address.
 */
extern void PioInterruptHandler( uint32_t id, Pio *pPio )
{
  4031bc:	b590      	push	{r4, r7, lr}
  4031be:	b085      	sub	sp, #20
  4031c0:	af00      	add	r7, sp, #0
  4031c2:	6078      	str	r0, [r7, #4]
  4031c4:	6039      	str	r1, [r7, #0]
    uint32_t status;
    uint32_t i;

    /* Read PIO controller status */
    status = pPio->PIO_ISR;
  4031c6:	683b      	ldr	r3, [r7, #0]
  4031c8:	6cdb      	ldr	r3, [r3, #76]	; 0x4c
  4031ca:	60bb      	str	r3, [r7, #8]
    status &= pPio->PIO_IMR;
  4031cc:	683b      	ldr	r3, [r7, #0]
  4031ce:	6c9a      	ldr	r2, [r3, #72]	; 0x48
  4031d0:	68bb      	ldr	r3, [r7, #8]
  4031d2:	ea03 0302 	and.w	r3, r3, r2
  4031d6:	60bb      	str	r3, [r7, #8]

    /* Check pending events */
    if ( status != 0 )
  4031d8:	68bb      	ldr	r3, [r7, #8]
  4031da:	2b00      	cmp	r3, #0
  4031dc:	d05e      	beq.n	40329c <PioInterruptHandler+0xe0>
    {
        TRACE_DEBUG( "PIO interrupt on PIO controller #%d\n\r", id ) ;

        /* Find triggering source */
        i = 0;
  4031de:	f04f 0300 	mov.w	r3, #0
  4031e2:	60fb      	str	r3, [r7, #12]
  4031e4:	e057      	b.n	403296 <PioInterruptHandler+0xda>
        while ( status != 0 )
        {
            /* There cannot be an unconfigured source enabled. */
            assert(i < _dwNumSources);
  4031e6:	f240 53dc 	movw	r3, #1500	; 0x5dc
  4031ea:	f2c2 0300 	movt	r3, #8192	; 0x2000
  4031ee:	681a      	ldr	r2, [r3, #0]
  4031f0:	68fb      	ldr	r3, [r7, #12]
  4031f2:	4293      	cmp	r3, r2
  4031f4:	d312      	bcc.n	40321c <PioInterruptHandler+0x60>
  4031f6:	f247 307c 	movw	r0, #29564	; 0x737c
  4031fa:	f2c0 0040 	movt	r0, #64	; 0x40
  4031fe:	f247 3190 	movw	r1, #29584	; 0x7390
  403202:	f2c0 0140 	movt	r1, #64	; 0x40
  403206:	f04f 0272 	mov.w	r2, #114	; 0x72
  40320a:	f247 3368 	movw	r3, #29544	; 0x7368
  40320e:	f2c0 0340 	movt	r3, #64	; 0x40
  403212:	f240 0400 	movw	r4, #0
  403216:	f2c0 0400 	movt	r4, #0
  40321a:	47a0      	blx	r4

            /* Source is configured on the same controller */
            if (_aIntSources[i].pPin->id == id)
  40321c:	68fa      	ldr	r2, [r7, #12]
  40321e:	f240 53e0 	movw	r3, #1504	; 0x5e0
  403222:	f2c2 0300 	movt	r3, #8192	; 0x2000
  403226:	f853 3032 	ldr.w	r3, [r3, r2, lsl #3]
  40322a:	7a1b      	ldrb	r3, [r3, #8]
  40322c:	461a      	mov	r2, r3
  40322e:	687b      	ldr	r3, [r7, #4]
  403230:	429a      	cmp	r2, r3
  403232:	d12c      	bne.n	40328e <PioInterruptHandler+0xd2>
            {
                /* Source has PIOs whose statuses have changed */
                if ( (status & _aIntSources[i].pPin->mask) != 0 )
  403234:	68fa      	ldr	r2, [r7, #12]
  403236:	f240 53e0 	movw	r3, #1504	; 0x5e0
  40323a:	f2c2 0300 	movt	r3, #8192	; 0x2000
  40323e:	f853 3032 	ldr.w	r3, [r3, r2, lsl #3]
  403242:	681a      	ldr	r2, [r3, #0]
  403244:	68bb      	ldr	r3, [r7, #8]
  403246:	ea02 0303 	and.w	r3, r2, r3
  40324a:	2b00      	cmp	r3, #0
  40324c:	d01f      	beq.n	40328e <PioInterruptHandler+0xd2>
                {
                    TRACE_DEBUG( "Interrupt source #%d triggered\n\r", i ) ;

                    _aIntSources[i].handler(_aIntSources[i].pPin);
  40324e:	68fb      	ldr	r3, [r7, #12]
  403250:	f240 52e0 	movw	r2, #1504	; 0x5e0
  403254:	f2c2 0200 	movt	r2, #8192	; 0x2000
  403258:	ea4f 03c3 	mov.w	r3, r3, lsl #3
  40325c:	4413      	add	r3, r2
  40325e:	6859      	ldr	r1, [r3, #4]
  403260:	68fa      	ldr	r2, [r7, #12]
  403262:	f240 53e0 	movw	r3, #1504	; 0x5e0
  403266:	f2c2 0300 	movt	r3, #8192	; 0x2000
  40326a:	f853 3032 	ldr.w	r3, [r3, r2, lsl #3]
  40326e:	4618      	mov	r0, r3
  403270:	4788      	blx	r1
                    status &= ~(_aIntSources[i].pPin->mask);
  403272:	68fa      	ldr	r2, [r7, #12]
  403274:	f240 53e0 	movw	r3, #1504	; 0x5e0
  403278:	f2c2 0300 	movt	r3, #8192	; 0x2000
  40327c:	f853 3032 	ldr.w	r3, [r3, r2, lsl #3]
  403280:	681b      	ldr	r3, [r3, #0]
  403282:	ea6f 0203 	mvn.w	r2, r3
  403286:	68bb      	ldr	r3, [r7, #8]
  403288:	ea03 0302 	and.w	r3, r3, r2
  40328c:	60bb      	str	r3, [r7, #8]
                }
            }
            i++;
  40328e:	68fb      	ldr	r3, [r7, #12]
  403290:	f103 0301 	add.w	r3, r3, #1
  403294:	60fb      	str	r3, [r7, #12]
    {
        TRACE_DEBUG( "PIO interrupt on PIO controller #%d\n\r", id ) ;

        /* Find triggering source */
        i = 0;
        while ( status != 0 )
  403296:	68bb      	ldr	r3, [r7, #8]
  403298:	2b00      	cmp	r3, #0
  40329a:	d1a4      	bne.n	4031e6 <PioInterruptHandler+0x2a>
                }
            }
            i++;
        }
    }
}
  40329c:	f107 0714 	add.w	r7, r7, #20
  4032a0:	46bd      	mov	sp, r7
  4032a2:	bd90      	pop	{r4, r7, pc}

004032a4 <PIOA_IrqHandler>:
/**
 * \brief Parallel IO Controller A interrupt handler
 * \Redefined PIOA interrupt handler for NVIC interrupt table.
 */
extern void PIOA_IrqHandler( void )
{
  4032a4:	b580      	push	{r7, lr}
  4032a6:	af00      	add	r7, sp, #0
    if ( PIOA->PIO_PCISR != 0 )
  4032a8:	f640 6300 	movw	r3, #3584	; 0xe00
  4032ac:	f2c4 030e 	movt	r3, #16398	; 0x400e
  4032b0:	f8d3 3160 	ldr.w	r3, [r3, #352]	; 0x160
  4032b4:	2b00      	cmp	r3, #0
  4032b6:	d004      	beq.n	4032c2 <PIOA_IrqHandler+0x1e>
    {
        PIO_CaptureHandler() ;
  4032b8:	f643 4325 	movw	r3, #15397	; 0x3c25
  4032bc:	f2c0 0340 	movt	r3, #64	; 0x40
  4032c0:	4798      	blx	r3
    }

    PioInterruptHandler( ID_PIOA, PIOA ) ;
  4032c2:	f04f 000b 	mov.w	r0, #11
  4032c6:	f640 6100 	movw	r1, #3584	; 0xe00
  4032ca:	f2c4 010e 	movt	r1, #16398	; 0x400e
  4032ce:	f243 13bd 	movw	r3, #12733	; 0x31bd
  4032d2:	f2c0 0340 	movt	r3, #64	; 0x40
  4032d6:	4798      	blx	r3
}
  4032d8:	46bd      	mov	sp, r7
  4032da:	bd80      	pop	{r7, pc}

004032dc <PIOB_IrqHandler>:
/**
 * \brief Parallel IO Controller B interrupt handler
 * \Redefined PIOB interrupt handler for NVIC interrupt table.
 */
extern void PIOB_IrqHandler( void )
{
  4032dc:	b580      	push	{r7, lr}
  4032de:	af00      	add	r7, sp, #0
    PioInterruptHandler( ID_PIOB, PIOB ) ;
  4032e0:	f04f 000c 	mov.w	r0, #12
  4032e4:	f241 0100 	movw	r1, #4096	; 0x1000
  4032e8:	f2c4 010e 	movt	r1, #16398	; 0x400e
  4032ec:	f243 13bd 	movw	r3, #12733	; 0x31bd
  4032f0:	f2c0 0340 	movt	r3, #64	; 0x40
  4032f4:	4798      	blx	r3
}
  4032f6:	46bd      	mov	sp, r7
  4032f8:	bd80      	pop	{r7, pc}
  4032fa:	bf00      	nop

004032fc <PIOC_IrqHandler>:
/**
 * \brief Parallel IO Controller C interrupt handler
 * \Redefined PIOC interrupt handler for NVIC interrupt table.
 */
extern void PIOC_IrqHandler( void )
{
  4032fc:	b580      	push	{r7, lr}
  4032fe:	af00      	add	r7, sp, #0
    PioInterruptHandler( ID_PIOC, PIOC ) ;
  403300:	f04f 000d 	mov.w	r0, #13
  403304:	f241 2100 	movw	r1, #4608	; 0x1200
  403308:	f2c4 010e 	movt	r1, #16398	; 0x400e
  40330c:	f243 13bd 	movw	r3, #12733	; 0x31bd
  403310:	f2c0 0340 	movt	r3, #64	; 0x40
  403314:	4798      	blx	r3
}
  403316:	46bd      	mov	sp, r7
  403318:	bd80      	pop	{r7, pc}
  40331a:	bf00      	nop

0040331c <PIO_InitializeInterrupts>:
 * configured interrupts.
 *
 * \param priority  PIO controller interrupts priority.
 */
extern void PIO_InitializeInterrupts( uint32_t dwPriority )
{
  40331c:	b580      	push	{r7, lr}
  40331e:	b084      	sub	sp, #16
  403320:	af00      	add	r7, sp, #0
  403322:	60f8      	str	r0, [r7, #12]
    TRACE_DEBUG( "PIO_Initialize()\n\r" ) ;

    /* Reset sources */
    _dwNumSources = 0 ;
  403324:	f240 53dc 	movw	r3, #1500	; 0x5dc
  403328:	f2c2 0300 	movt	r3, #8192	; 0x2000
  40332c:	f04f 0200 	mov.w	r2, #0
  403330:	601a      	str	r2, [r3, #0]

    /* Configure PIO interrupt sources */
    TRACE_DEBUG( "PIO_Initialize: Configuring PIOA\n\r" ) ;
    PMC_EnablePeripheral( ID_PIOA ) ;
  403332:	f04f 000b 	mov.w	r0, #11
  403336:	f643 13b1 	movw	r3, #14769	; 0x39b1
  40333a:	f2c0 0340 	movt	r3, #64	; 0x40
  40333e:	4798      	blx	r3
    PIOA->PIO_ISR ;
  403340:	f640 6300 	movw	r3, #3584	; 0xe00
  403344:	f2c4 030e 	movt	r3, #16398	; 0x400e
  403348:	6cdb      	ldr	r3, [r3, #76]	; 0x4c
    PIOA->PIO_IDR = 0xFFFFFFFF ;
  40334a:	f640 6300 	movw	r3, #3584	; 0xe00
  40334e:	f2c4 030e 	movt	r3, #16398	; 0x400e
  403352:	f04f 32ff 	mov.w	r2, #4294967295
  403356:	645a      	str	r2, [r3, #68]	; 0x44
    NVIC_DisableIRQ( PIOA_IRQn ) ;
  403358:	f04f 000b 	mov.w	r0, #11
  40335c:	f243 435d 	movw	r3, #13405	; 0x345d
  403360:	f2c0 0340 	movt	r3, #64	; 0x40
  403364:	4798      	blx	r3
    NVIC_ClearPendingIRQ( PIOA_IRQn ) ;
  403366:	f04f 000b 	mov.w	r0, #11
  40336a:	f243 4395 	movw	r3, #13461	; 0x3495
  40336e:	f2c0 0340 	movt	r3, #64	; 0x40
  403372:	4798      	blx	r3
    NVIC_SetPriority( PIOA_IRQn, dwPriority ) ;
  403374:	f04f 000b 	mov.w	r0, #11
  403378:	68f9      	ldr	r1, [r7, #12]
  40337a:	f243 43cd 	movw	r3, #13517	; 0x34cd
  40337e:	f2c0 0340 	movt	r3, #64	; 0x40
  403382:	4798      	blx	r3
    NVIC_EnableIRQ( PIOA_IRQn ) ;
  403384:	f04f 000b 	mov.w	r0, #11
  403388:	f243 5325 	movw	r3, #13605	; 0x3525
  40338c:	f2c0 0340 	movt	r3, #64	; 0x40
  403390:	4798      	blx	r3

    TRACE_DEBUG( "PIO_Initialize: Configuring PIOB\n\r" ) ;
    PMC_EnablePeripheral( ID_PIOB ) ;
  403392:	f04f 000c 	mov.w	r0, #12
  403396:	f643 13b1 	movw	r3, #14769	; 0x39b1
  40339a:	f2c0 0340 	movt	r3, #64	; 0x40
  40339e:	4798      	blx	r3
    PIOB->PIO_ISR ;
  4033a0:	f241 0300 	movw	r3, #4096	; 0x1000
  4033a4:	f2c4 030e 	movt	r3, #16398	; 0x400e
  4033a8:	6cdb      	ldr	r3, [r3, #76]	; 0x4c
    PIOB->PIO_IDR = 0xFFFFFFFF ;
  4033aa:	f241 0300 	movw	r3, #4096	; 0x1000
  4033ae:	f2c4 030e 	movt	r3, #16398	; 0x400e
  4033b2:	f04f 32ff 	mov.w	r2, #4294967295
  4033b6:	645a      	str	r2, [r3, #68]	; 0x44
    NVIC_DisableIRQ( PIOB_IRQn ) ;
  4033b8:	f04f 000c 	mov.w	r0, #12
  4033bc:	f243 435d 	movw	r3, #13405	; 0x345d
  4033c0:	f2c0 0340 	movt	r3, #64	; 0x40
  4033c4:	4798      	blx	r3
    NVIC_ClearPendingIRQ( PIOB_IRQn ) ;
  4033c6:	f04f 000c 	mov.w	r0, #12
  4033ca:	f243 4395 	movw	r3, #13461	; 0x3495
  4033ce:	f2c0 0340 	movt	r3, #64	; 0x40
  4033d2:	4798      	blx	r3
    NVIC_SetPriority( PIOB_IRQn, dwPriority ) ;
  4033d4:	f04f 000c 	mov.w	r0, #12
  4033d8:	68f9      	ldr	r1, [r7, #12]
  4033da:	f243 43cd 	movw	r3, #13517	; 0x34cd
  4033de:	f2c0 0340 	movt	r3, #64	; 0x40
  4033e2:	4798      	blx	r3
    NVIC_EnableIRQ( PIOB_IRQn ) ;
  4033e4:	f04f 000c 	mov.w	r0, #12
  4033e8:	f243 5325 	movw	r3, #13605	; 0x3525
  4033ec:	f2c0 0340 	movt	r3, #64	; 0x40
  4033f0:	4798      	blx	r3
/*
    TRACE_DEBUG( "PIO_Initialize: Configuring PIOC\n\r" ) ;
    PMC_EnablePeripheral( ID_PIOC ) ;
  4033f2:	f04f 000d 	mov.w	r0, #13
  4033f6:	f643 13b1 	movw	r3, #14769	; 0x39b1
  4033fa:	f2c0 0340 	movt	r3, #64	; 0x40
  4033fe:	4798      	blx	r3
    PIOC->PIO_ISR ;
  403400:	f241 2300 	movw	r3, #4608	; 0x1200
  403404:	f2c4 030e 	movt	r3, #16398	; 0x400e
  403408:	6cdb      	ldr	r3, [r3, #76]	; 0x4c
    PIOC->PIO_IDR = 0xFFFFFFFF ;
  40340a:	f241 2300 	movw	r3, #4608	; 0x1200
  40340e:	f2c4 030e 	movt	r3, #16398	; 0x400e
  403412:	f04f 32ff 	mov.w	r2, #4294967295
  403416:	645a      	str	r2, [r3, #68]	; 0x44
    NVIC_DisableIRQ( PIOC_IRQn ) ;
  403418:	f04f 000d 	mov.w	r0, #13
  40341c:	f243 435d 	movw	r3, #13405	; 0x345d
  403420:	f2c0 0340 	movt	r3, #64	; 0x40
  403424:	4798      	blx	r3
    NVIC_ClearPendingIRQ( PIOC_IRQn ) ;
  403426:	f04f 000d 	mov.w	r0, #13
  40342a:	f243 4395 	movw	r3, #13461	; 0x3495
  40342e:	f2c0 0340 	movt	r3, #64	; 0x40
  403432:	4798      	blx	r3
    NVIC_SetPriority( PIOC_IRQn, dwPriority ) ;
  403434:	f04f 000d 	mov.w	r0, #13
  403438:	68f9      	ldr	r1, [r7, #12]
  40343a:	f243 43cd 	movw	r3, #13517	; 0x34cd
  40343e:	f2c0 0340 	movt	r3, #64	; 0x40
  403442:	4798      	blx	r3
    NVIC_EnableIRQ( PIOC_IRQn ) ;
  403444:	f04f 000d 	mov.w	r0, #13
  403448:	f243 5325 	movw	r3, #13605	; 0x3525
  40344c:	f2c0 0340 	movt	r3, #64	; 0x40
  403450:	4798      	blx	r3
*/
  403452:	f107 0710 	add.w	r7, r7, #16
  403456:	46bd      	mov	sp, r7
  403458:	bd80      	pop	{r7, pc}
  40345a:	bf00      	nop

0040345c <NVIC_DisableIRQ>:
 *
 * Disable a device specific interupt in the NVIC interrupt controller.
 * The interrupt number cannot be a negative value.
 */
static __INLINE void NVIC_DisableIRQ(IRQn_Type IRQn)
{
  40345c:	b480      	push	{r7}
  40345e:	b083      	sub	sp, #12
  403460:	af00      	add	r7, sp, #0
  403462:	6078      	str	r0, [r7, #4]
  NVIC->ICER[((uint32_t)(IRQn) >> 5)] = (1 << ((uint32_t)(IRQn) & 0x1F)); /* disable interrupt */
  403464:	f24e 1100 	movw	r1, #57600	; 0xe100
  403468:	f2ce 0100 	movt	r1, #57344	; 0xe000
  40346c:	687b      	ldr	r3, [r7, #4]
  40346e:	ea4f 1053 	mov.w	r0, r3, lsr #5
  403472:	687b      	ldr	r3, [r7, #4]
  403474:	f003 021f 	and.w	r2, r3, #31
  403478:	f04f 0301 	mov.w	r3, #1
  40347c:	fa03 f302 	lsl.w	r3, r3, r2
  403480:	461a      	mov	r2, r3
  403482:	f100 0320 	add.w	r3, r0, #32
  403486:	f841 2023 	str.w	r2, [r1, r3, lsl #2]
}
  40348a:	f107 070c 	add.w	r7, r7, #12
  40348e:	46bd      	mov	sp, r7
  403490:	bc80      	pop	{r7}
  403492:	4770      	bx	lr

00403494 <NVIC_ClearPendingIRQ>:
 *
 * Clear the pending bit for the specified interrupt.
 * The interrupt number cannot be a negative value.
 */
static __INLINE void NVIC_ClearPendingIRQ(IRQn_Type IRQn)
{
  403494:	b480      	push	{r7}
  403496:	b083      	sub	sp, #12
  403498:	af00      	add	r7, sp, #0
  40349a:	6078      	str	r0, [r7, #4]
  NVIC->ICPR[((uint32_t)(IRQn) >> 5)] = (1 << ((uint32_t)(IRQn) & 0x1F)); /* Clear pending interrupt */
  40349c:	f24e 1100 	movw	r1, #57600	; 0xe100
  4034a0:	f2ce 0100 	movt	r1, #57344	; 0xe000
  4034a4:	687b      	ldr	r3, [r7, #4]
  4034a6:	ea4f 1053 	mov.w	r0, r3, lsr #5
  4034aa:	687b      	ldr	r3, [r7, #4]
  4034ac:	f003 021f 	and.w	r2, r3, #31
  4034b0:	f04f 0301 	mov.w	r3, #1
  4034b4:	fa03 f302 	lsl.w	r3, r3, r2
  4034b8:	461a      	mov	r2, r3
  4034ba:	f100 0360 	add.w	r3, r0, #96	; 0x60
  4034be:	f841 2023 	str.w	r2, [r1, r3, lsl #2]
}
  4034c2:	f107 070c 	add.w	r7, r7, #12
  4034c6:	46bd      	mov	sp, r7
  4034c8:	bc80      	pop	{r7}
  4034ca:	4770      	bx	lr

004034cc <NVIC_SetPriority>:
 * interrupt, or negative to specify an internal (core) interrupt.
 *
 * Note: The priority cannot be set for every core interrupt.
 */
static __INLINE void NVIC_SetPriority(IRQn_Type IRQn, uint32_t priority)
{
  4034cc:	b480      	push	{r7}
  4034ce:	b083      	sub	sp, #12
  4034d0:	af00      	add	r7, sp, #0
  4034d2:	6078      	str	r0, [r7, #4]
  4034d4:	6039      	str	r1, [r7, #0]
  if(IRQn < 0) {
  4034d6:	687b      	ldr	r3, [r7, #4]
  4034d8:	2b00      	cmp	r3, #0
  4034da:	da10      	bge.n	4034fe <NVIC_SetPriority+0x32>
    SCB->SHP[((uint32_t)(IRQn) & 0xF)-4] = ((priority << (8 - __NVIC_PRIO_BITS)) & 0xff); } /* set Priority for Cortex-M3 System Interrupts */
  4034dc:	f64e 5200 	movw	r2, #60672	; 0xed00
  4034e0:	f2ce 0200 	movt	r2, #57344	; 0xe000
  4034e4:	687b      	ldr	r3, [r7, #4]
  4034e6:	f003 030f 	and.w	r3, r3, #15
  4034ea:	f1a3 0104 	sub.w	r1, r3, #4
  4034ee:	683b      	ldr	r3, [r7, #0]
  4034f0:	b2db      	uxtb	r3, r3
  4034f2:	ea4f 1303 	mov.w	r3, r3, lsl #4
  4034f6:	b2db      	uxtb	r3, r3
  4034f8:	440a      	add	r2, r1
  4034fa:	7613      	strb	r3, [r2, #24]
  4034fc:	e00c      	b.n	403518 <NVIC_SetPriority+0x4c>
  else {
    NVIC->IP[(uint32_t)(IRQn)] = ((priority << (8 - __NVIC_PRIO_BITS)) & 0xff);    }        /* set Priority for device specific Interrupts  */
  4034fe:	f24e 1200 	movw	r2, #57600	; 0xe100
  403502:	f2ce 0200 	movt	r2, #57344	; 0xe000
  403506:	6879      	ldr	r1, [r7, #4]
  403508:	683b      	ldr	r3, [r7, #0]
  40350a:	b2db      	uxtb	r3, r3
  40350c:	ea4f 1303 	mov.w	r3, r3, lsl #4
  403510:	b2db      	uxtb	r3, r3
  403512:	440a      	add	r2, r1
  403514:	f882 3300 	strb.w	r3, [r2, #768]	; 0x300
}
  403518:	f107 070c 	add.w	r7, r7, #12
  40351c:	46bd      	mov	sp, r7
  40351e:	bc80      	pop	{r7}
  403520:	4770      	bx	lr
  403522:	bf00      	nop

00403524 <NVIC_EnableIRQ>:
 *
 * Enable a device specific interupt in the NVIC interrupt controller.
 * The interrupt number cannot be a negative value.
 */
static __INLINE void NVIC_EnableIRQ(IRQn_Type IRQn)
{
  403524:	b480      	push	{r7}
  403526:	b083      	sub	sp, #12
  403528:	af00      	add	r7, sp, #0
  40352a:	6078      	str	r0, [r7, #4]
  NVIC->ISER[((uint32_t)(IRQn) >> 5)] = (1 << ((uint32_t)(IRQn) & 0x1F)); /* enable interrupt */
  40352c:	f24e 1100 	movw	r1, #57600	; 0xe100
  403530:	f2ce 0100 	movt	r1, #57344	; 0xe000
  403534:	687b      	ldr	r3, [r7, #4]
  403536:	ea4f 1053 	mov.w	r0, r3, lsr #5
  40353a:	687b      	ldr	r3, [r7, #4]
  40353c:	f003 021f 	and.w	r2, r3, #31
  403540:	f04f 0301 	mov.w	r3, #1
  403544:	fa03 f302 	lsl.w	r3, r3, r2
  403548:	f841 3020 	str.w	r3, [r1, r0, lsl #2]
}
  40354c:	f107 070c 	add.w	r7, r7, #12
  403550:	46bd      	mov	sp, r7
  403552:	bc80      	pop	{r7}
  403554:	4770      	bx	lr
  403556:	bf00      	nop

00403558 <PIO_SetPeripheralA>:
 */
static void PIO_SetPeripheralA(
    Pio *pio,
    unsigned int mask,
    unsigned char enablePullUp)
{
  403558:	b480      	push	{r7}
  40355a:	b087      	sub	sp, #28
  40355c:	af00      	add	r7, sp, #0
  40355e:	60f8      	str	r0, [r7, #12]
  403560:	60b9      	str	r1, [r7, #8]
  403562:	4613      	mov	r3, r2
  403564:	71fb      	strb	r3, [r7, #7]
    unsigned int abcdsr;
    /* Disable interrupts on the pin(s) */
    pio->PIO_IDR = mask;
  403566:	68fa      	ldr	r2, [r7, #12]
  403568:	68bb      	ldr	r3, [r7, #8]
  40356a:	6453      	str	r3, [r2, #68]	; 0x44

    /* Enable the pull-up(s) if necessary */
    if (enablePullUp) {
  40356c:	79fb      	ldrb	r3, [r7, #7]
  40356e:	2b00      	cmp	r3, #0
  403570:	d003      	beq.n	40357a <PIO_SetPeripheralA+0x22>
        pio->PIO_PUER = mask;
  403572:	68fa      	ldr	r2, [r7, #12]
  403574:	68bb      	ldr	r3, [r7, #8]
  403576:	6653      	str	r3, [r2, #100]	; 0x64
  403578:	e002      	b.n	403580 <PIO_SetPeripheralA+0x28>
    }
    else {

        pio->PIO_PUDR = mask;
  40357a:	68fa      	ldr	r2, [r7, #12]
  40357c:	68bb      	ldr	r3, [r7, #8]
  40357e:	6613      	str	r3, [r2, #96]	; 0x60
    }

    abcdsr = pio->PIO_ABCDSR[0];
  403580:	68fb      	ldr	r3, [r7, #12]
  403582:	6f1b      	ldr	r3, [r3, #112]	; 0x70
  403584:	617b      	str	r3, [r7, #20]
    pio->PIO_ABCDSR[0] &= (~mask & abcdsr);
  403586:	68fb      	ldr	r3, [r7, #12]
  403588:	6f19      	ldr	r1, [r3, #112]	; 0x70
  40358a:	68bb      	ldr	r3, [r7, #8]
  40358c:	ea6f 0203 	mvn.w	r2, r3
  403590:	697b      	ldr	r3, [r7, #20]
  403592:	ea02 0303 	and.w	r3, r2, r3
  403596:	ea01 0203 	and.w	r2, r1, r3
  40359a:	68fb      	ldr	r3, [r7, #12]
  40359c:	671a      	str	r2, [r3, #112]	; 0x70
    abcdsr = pio->PIO_ABCDSR[1];
  40359e:	68fb      	ldr	r3, [r7, #12]
  4035a0:	6f5b      	ldr	r3, [r3, #116]	; 0x74
  4035a2:	617b      	str	r3, [r7, #20]
    pio->PIO_ABCDSR[1] &= (~mask & abcdsr);
  4035a4:	68fb      	ldr	r3, [r7, #12]
  4035a6:	6f59      	ldr	r1, [r3, #116]	; 0x74
  4035a8:	68bb      	ldr	r3, [r7, #8]
  4035aa:	ea6f 0203 	mvn.w	r2, r3
  4035ae:	697b      	ldr	r3, [r7, #20]
  4035b0:	ea02 0303 	and.w	r3, r2, r3
  4035b4:	ea01 0203 	and.w	r2, r1, r3
  4035b8:	68fb      	ldr	r3, [r7, #12]
  4035ba:	675a      	str	r2, [r3, #116]	; 0x74
    pio->PIO_PDR = mask;
  4035bc:	68fa      	ldr	r2, [r7, #12]
  4035be:	68bb      	ldr	r3, [r7, #8]
  4035c0:	6053      	str	r3, [r2, #4]
}
  4035c2:	f107 071c 	add.w	r7, r7, #28
  4035c6:	46bd      	mov	sp, r7
  4035c8:	bc80      	pop	{r7}
  4035ca:	4770      	bx	lr

004035cc <PIO_SetPeripheralB>:
 */
static void PIO_SetPeripheralB(
    Pio *pio,
    unsigned int mask,
    unsigned char enablePullUp)
{
  4035cc:	b480      	push	{r7}
  4035ce:	b087      	sub	sp, #28
  4035d0:	af00      	add	r7, sp, #0
  4035d2:	60f8      	str	r0, [r7, #12]
  4035d4:	60b9      	str	r1, [r7, #8]
  4035d6:	4613      	mov	r3, r2
  4035d8:	71fb      	strb	r3, [r7, #7]
    unsigned int abcdsr;
    /* Disable interrupts on the pin(s) */
    pio->PIO_IDR = mask;
  4035da:	68fa      	ldr	r2, [r7, #12]
  4035dc:	68bb      	ldr	r3, [r7, #8]
  4035de:	6453      	str	r3, [r2, #68]	; 0x44

    /* Enable the pull-up(s) if necessary */
    if (enablePullUp) {
  4035e0:	79fb      	ldrb	r3, [r7, #7]
  4035e2:	2b00      	cmp	r3, #0
  4035e4:	d003      	beq.n	4035ee <PIO_SetPeripheralB+0x22>

        pio->PIO_PUER = mask;
  4035e6:	68fa      	ldr	r2, [r7, #12]
  4035e8:	68bb      	ldr	r3, [r7, #8]
  4035ea:	6653      	str	r3, [r2, #100]	; 0x64
  4035ec:	e002      	b.n	4035f4 <PIO_SetPeripheralB+0x28>
    }
    else {

        pio->PIO_PUDR = mask;
  4035ee:	68fa      	ldr	r2, [r7, #12]
  4035f0:	68bb      	ldr	r3, [r7, #8]
  4035f2:	6613      	str	r3, [r2, #96]	; 0x60
    }

    abcdsr = pio->PIO_ABCDSR[0];
  4035f4:	68fb      	ldr	r3, [r7, #12]
  4035f6:	6f1b      	ldr	r3, [r3, #112]	; 0x70
  4035f8:	617b      	str	r3, [r7, #20]
    pio->PIO_ABCDSR[0] = (mask | abcdsr);
  4035fa:	68ba      	ldr	r2, [r7, #8]
  4035fc:	697b      	ldr	r3, [r7, #20]
  4035fe:	ea42 0203 	orr.w	r2, r2, r3
  403602:	68fb      	ldr	r3, [r7, #12]
  403604:	671a      	str	r2, [r3, #112]	; 0x70
    abcdsr = pio->PIO_ABCDSR[1];
  403606:	68fb      	ldr	r3, [r7, #12]
  403608:	6f5b      	ldr	r3, [r3, #116]	; 0x74
  40360a:	617b      	str	r3, [r7, #20]
    pio->PIO_ABCDSR[1] &= (~mask & abcdsr);
  40360c:	68fb      	ldr	r3, [r7, #12]
  40360e:	6f59      	ldr	r1, [r3, #116]	; 0x74
  403610:	68bb      	ldr	r3, [r7, #8]
  403612:	ea6f 0203 	mvn.w	r2, r3
  403616:	697b      	ldr	r3, [r7, #20]
  403618:	ea02 0303 	and.w	r3, r2, r3
  40361c:	ea01 0203 	and.w	r2, r1, r3
  403620:	68fb      	ldr	r3, [r7, #12]
  403622:	675a      	str	r2, [r3, #116]	; 0x74

    pio->PIO_PDR = mask;
  403624:	68fa      	ldr	r2, [r7, #12]
  403626:	68bb      	ldr	r3, [r7, #8]
  403628:	6053      	str	r3, [r2, #4]
}
  40362a:	f107 071c 	add.w	r7, r7, #28
  40362e:	46bd      	mov	sp, r7
  403630:	bc80      	pop	{r7}
  403632:	4770      	bx	lr

00403634 <PIO_SetPeripheralC>:
 */
static void PIO_SetPeripheralC(
    Pio *pio,
    unsigned int mask,
    unsigned char enablePullUp)
{
  403634:	b480      	push	{r7}
  403636:	b087      	sub	sp, #28
  403638:	af00      	add	r7, sp, #0
  40363a:	60f8      	str	r0, [r7, #12]
  40363c:	60b9      	str	r1, [r7, #8]
  40363e:	4613      	mov	r3, r2
  403640:	71fb      	strb	r3, [r7, #7]
    unsigned int abcdsr;
    /* Disable interrupts on the pin(s) */
    pio->PIO_IDR = mask;
  403642:	68fa      	ldr	r2, [r7, #12]
  403644:	68bb      	ldr	r3, [r7, #8]
  403646:	6453      	str	r3, [r2, #68]	; 0x44

    /* Enable the pull-up(s) if necessary */
    if (enablePullUp) {
  403648:	79fb      	ldrb	r3, [r7, #7]
  40364a:	2b00      	cmp	r3, #0
  40364c:	d003      	beq.n	403656 <PIO_SetPeripheralC+0x22>

        pio->PIO_PUER = mask;
  40364e:	68fa      	ldr	r2, [r7, #12]
  403650:	68bb      	ldr	r3, [r7, #8]
  403652:	6653      	str	r3, [r2, #100]	; 0x64
  403654:	e002      	b.n	40365c <PIO_SetPeripheralC+0x28>
    }
    else {

        pio->PIO_PUDR = mask;
  403656:	68fa      	ldr	r2, [r7, #12]
  403658:	68bb      	ldr	r3, [r7, #8]
  40365a:	6613      	str	r3, [r2, #96]	; 0x60
    }

    abcdsr = pio->PIO_ABCDSR[0];
  40365c:	68fb      	ldr	r3, [r7, #12]
  40365e:	6f1b      	ldr	r3, [r3, #112]	; 0x70
  403660:	617b      	str	r3, [r7, #20]
    pio->PIO_ABCDSR[0] &= (~mask & abcdsr);
  403662:	68fb      	ldr	r3, [r7, #12]
  403664:	6f19      	ldr	r1, [r3, #112]	; 0x70
  403666:	68bb      	ldr	r3, [r7, #8]
  403668:	ea6f 0203 	mvn.w	r2, r3
  40366c:	697b      	ldr	r3, [r7, #20]
  40366e:	ea02 0303 	and.w	r3, r2, r3
  403672:	ea01 0203 	and.w	r2, r1, r3
  403676:	68fb      	ldr	r3, [r7, #12]
  403678:	671a      	str	r2, [r3, #112]	; 0x70
    abcdsr = pio->PIO_ABCDSR[1];
  40367a:	68fb      	ldr	r3, [r7, #12]
  40367c:	6f5b      	ldr	r3, [r3, #116]	; 0x74
  40367e:	617b      	str	r3, [r7, #20]
    pio->PIO_ABCDSR[1] = (mask | abcdsr);
  403680:	68ba      	ldr	r2, [r7, #8]
  403682:	697b      	ldr	r3, [r7, #20]
  403684:	ea42 0203 	orr.w	r2, r2, r3
  403688:	68fb      	ldr	r3, [r7, #12]
  40368a:	675a      	str	r2, [r3, #116]	; 0x74

    pio->PIO_PDR = mask;
  40368c:	68fa      	ldr	r2, [r7, #12]
  40368e:	68bb      	ldr	r3, [r7, #8]
  403690:	6053      	str	r3, [r2, #4]
}
  403692:	f107 071c 	add.w	r7, r7, #28
  403696:	46bd      	mov	sp, r7
  403698:	bc80      	pop	{r7}
  40369a:	4770      	bx	lr

0040369c <PIO_SetPeripheralD>:
 */
static void PIO_SetPeripheralD(
    Pio *pio,
    unsigned int mask,
    unsigned char enablePullUp)
{
  40369c:	b480      	push	{r7}
  40369e:	b087      	sub	sp, #28
  4036a0:	af00      	add	r7, sp, #0
  4036a2:	60f8      	str	r0, [r7, #12]
  4036a4:	60b9      	str	r1, [r7, #8]
  4036a6:	4613      	mov	r3, r2
  4036a8:	71fb      	strb	r3, [r7, #7]
    unsigned int abcdsr;
    /* Disable interrupts on the pin(s) */
    pio->PIO_IDR = mask;
  4036aa:	68fa      	ldr	r2, [r7, #12]
  4036ac:	68bb      	ldr	r3, [r7, #8]
  4036ae:	6453      	str	r3, [r2, #68]	; 0x44

    /* Enable the pull-up(s) if necessary */
    if (enablePullUp) {
  4036b0:	79fb      	ldrb	r3, [r7, #7]
  4036b2:	2b00      	cmp	r3, #0
  4036b4:	d003      	beq.n	4036be <PIO_SetPeripheralD+0x22>

        pio->PIO_PUER = mask;
  4036b6:	68fa      	ldr	r2, [r7, #12]
  4036b8:	68bb      	ldr	r3, [r7, #8]
  4036ba:	6653      	str	r3, [r2, #100]	; 0x64
  4036bc:	e002      	b.n	4036c4 <PIO_SetPeripheralD+0x28>
    }
    else {

        pio->PIO_PUDR = mask;
  4036be:	68fa      	ldr	r2, [r7, #12]
  4036c0:	68bb      	ldr	r3, [r7, #8]
  4036c2:	6613      	str	r3, [r2, #96]	; 0x60
    }

    abcdsr = pio->PIO_ABCDSR[0];
  4036c4:	68fb      	ldr	r3, [r7, #12]
  4036c6:	6f1b      	ldr	r3, [r3, #112]	; 0x70
  4036c8:	617b      	str	r3, [r7, #20]
    pio->PIO_ABCDSR[0] = (mask | abcdsr);
  4036ca:	68ba      	ldr	r2, [r7, #8]
  4036cc:	697b      	ldr	r3, [r7, #20]
  4036ce:	ea42 0203 	orr.w	r2, r2, r3
  4036d2:	68fb      	ldr	r3, [r7, #12]
  4036d4:	671a      	str	r2, [r3, #112]	; 0x70
    abcdsr = pio->PIO_ABCDSR[1];
  4036d6:	68fb      	ldr	r3, [r7, #12]
  4036d8:	6f5b      	ldr	r3, [r3, #116]	; 0x74
  4036da:	617b      	str	r3, [r7, #20]
    pio->PIO_ABCDSR[1] = (mask | abcdsr);
  4036dc:	68ba      	ldr	r2, [r7, #8]
  4036de:	697b      	ldr	r3, [r7, #20]
  4036e0:	ea42 0203 	orr.w	r2, r2, r3
  4036e4:	68fb      	ldr	r3, [r7, #12]
  4036e6:	675a      	str	r2, [r3, #116]	; 0x74

    pio->PIO_PDR = mask;
  4036e8:	68fa      	ldr	r2, [r7, #12]
  4036ea:	68bb      	ldr	r3, [r7, #8]
  4036ec:	6053      	str	r3, [r2, #4]
}
  4036ee:	f107 071c 	add.w	r7, r7, #28
  4036f2:	46bd      	mov	sp, r7
  4036f4:	bc80      	pop	{r7}
  4036f6:	4770      	bx	lr

004036f8 <PIO_SetInput>:
 */
static void PIO_SetInput(
    Pio *pio,
    unsigned int mask,
    unsigned char attribute)
{
  4036f8:	b480      	push	{r7}
  4036fa:	b085      	sub	sp, #20
  4036fc:	af00      	add	r7, sp, #0
  4036fe:	60f8      	str	r0, [r7, #12]
  403700:	60b9      	str	r1, [r7, #8]
  403702:	4613      	mov	r3, r2
  403704:	71fb      	strb	r3, [r7, #7]
    /* Disable interrupts */
    pio->PIO_IDR = mask;
  403706:	68fa      	ldr	r2, [r7, #12]
  403708:	68bb      	ldr	r3, [r7, #8]
  40370a:	6453      	str	r3, [r2, #68]	; 0x44

    /* Enable pull-up(s) if necessary */
    if (attribute & PIO_PULLUP)
  40370c:	79fb      	ldrb	r3, [r7, #7]
  40370e:	f003 0301 	and.w	r3, r3, #1
  403712:	b2db      	uxtb	r3, r3
  403714:	2b00      	cmp	r3, #0
  403716:	d003      	beq.n	403720 <PIO_SetInput+0x28>
        pio->PIO_PUER = mask;
  403718:	68fa      	ldr	r2, [r7, #12]
  40371a:	68bb      	ldr	r3, [r7, #8]
  40371c:	6653      	str	r3, [r2, #100]	; 0x64
  40371e:	e002      	b.n	403726 <PIO_SetInput+0x2e>
    else
        pio->PIO_PUDR = mask;
  403720:	68fa      	ldr	r2, [r7, #12]
  403722:	68bb      	ldr	r3, [r7, #8]
  403724:	6613      	str	r3, [r2, #96]	; 0x60

    /* Enable Input Filter if necessary */
    if (attribute & (PIO_DEGLITCH | PIO_DEBOUNCE))
  403726:	79fb      	ldrb	r3, [r7, #7]
  403728:	f003 030a 	and.w	r3, r3, #10
  40372c:	2b00      	cmp	r3, #0
  40372e:	d003      	beq.n	403738 <PIO_SetInput+0x40>
        pio->PIO_IFER = mask;
  403730:	68fa      	ldr	r2, [r7, #12]
  403732:	68bb      	ldr	r3, [r7, #8]
  403734:	6213      	str	r3, [r2, #32]
  403736:	e002      	b.n	40373e <PIO_SetInput+0x46>
    else
        pio->PIO_IFDR = mask;
  403738:	68fa      	ldr	r2, [r7, #12]
  40373a:	68bb      	ldr	r3, [r7, #8]
  40373c:	6253      	str	r3, [r2, #36]	; 0x24

    /* Enable de-glitch or de-bounce if necessary */
    if (attribute & PIO_DEGLITCH)
  40373e:	79fb      	ldrb	r3, [r7, #7]
  403740:	f003 0302 	and.w	r3, r3, #2
  403744:	2b00      	cmp	r3, #0
  403746:	d004      	beq.n	403752 <PIO_SetInput+0x5a>
    {
        pio->PIO_IFSCDR = mask;
  403748:	68fa      	ldr	r2, [r7, #12]
  40374a:	68bb      	ldr	r3, [r7, #8]
  40374c:	f8c2 3080 	str.w	r3, [r2, #128]	; 0x80
  403750:	e008      	b.n	403764 <PIO_SetInput+0x6c>
    }
    else
    {
        if (attribute & PIO_DEBOUNCE)
  403752:	79fb      	ldrb	r3, [r7, #7]
  403754:	f003 0308 	and.w	r3, r3, #8
  403758:	2b00      	cmp	r3, #0
  40375a:	d003      	beq.n	403764 <PIO_SetInput+0x6c>
        {
            pio->PIO_IFSCER = mask;
  40375c:	68fa      	ldr	r2, [r7, #12]
  40375e:	68bb      	ldr	r3, [r7, #8]
  403760:	f8c2 3084 	str.w	r3, [r2, #132]	; 0x84
        }
    }

    /* Configure pin as input */
    pio->PIO_ODR = mask;
  403764:	68fa      	ldr	r2, [r7, #12]
  403766:	68bb      	ldr	r3, [r7, #8]
  403768:	6153      	str	r3, [r2, #20]
    pio->PIO_PER = mask;
  40376a:	68fa      	ldr	r2, [r7, #12]
  40376c:	68bb      	ldr	r3, [r7, #8]
  40376e:	6013      	str	r3, [r2, #0]
}
  403770:	f107 0714 	add.w	r7, r7, #20
  403774:	46bd      	mov	sp, r7
  403776:	bc80      	pop	{r7}
  403778:	4770      	bx	lr
  40377a:	bf00      	nop

0040377c <PIO_SetOutput>:
    Pio *pio,
    unsigned int mask,
    unsigned char defaultValue,
    unsigned char enableMultiDrive,
    unsigned char enablePullUp)
{
  40377c:	b480      	push	{r7}
  40377e:	b085      	sub	sp, #20
  403780:	af00      	add	r7, sp, #0
  403782:	60f8      	str	r0, [r7, #12]
  403784:	60b9      	str	r1, [r7, #8]
  403786:	4619      	mov	r1, r3
  403788:	4613      	mov	r3, r2
  40378a:	71fb      	strb	r3, [r7, #7]
  40378c:	460b      	mov	r3, r1
  40378e:	71bb      	strb	r3, [r7, #6]
    /* Disable interrupts */
    pio->PIO_IDR = mask;
  403790:	68fa      	ldr	r2, [r7, #12]
  403792:	68bb      	ldr	r3, [r7, #8]
  403794:	6453      	str	r3, [r2, #68]	; 0x44

    /* Enable pull-up(s) if necessary */
    if (enablePullUp) {
  403796:	7e3b      	ldrb	r3, [r7, #24]
  403798:	2b00      	cmp	r3, #0
  40379a:	d003      	beq.n	4037a4 <PIO_SetOutput+0x28>

        pio->PIO_PUER = mask;
  40379c:	68fa      	ldr	r2, [r7, #12]
  40379e:	68bb      	ldr	r3, [r7, #8]
  4037a0:	6653      	str	r3, [r2, #100]	; 0x64
  4037a2:	e002      	b.n	4037aa <PIO_SetOutput+0x2e>
    }
    else {

        pio->PIO_PUDR = mask;
  4037a4:	68fa      	ldr	r2, [r7, #12]
  4037a6:	68bb      	ldr	r3, [r7, #8]
  4037a8:	6613      	str	r3, [r2, #96]	; 0x60
    }

    /* Enable multi-drive if necessary */
    if (enableMultiDrive) {
  4037aa:	79bb      	ldrb	r3, [r7, #6]
  4037ac:	2b00      	cmp	r3, #0
  4037ae:	d003      	beq.n	4037b8 <PIO_SetOutput+0x3c>

        pio->PIO_MDER = mask;
  4037b0:	68fa      	ldr	r2, [r7, #12]
  4037b2:	68bb      	ldr	r3, [r7, #8]
  4037b4:	6513      	str	r3, [r2, #80]	; 0x50
  4037b6:	e002      	b.n	4037be <PIO_SetOutput+0x42>
    }
    else {

        pio->PIO_MDDR = mask;
  4037b8:	68fa      	ldr	r2, [r7, #12]
  4037ba:	68bb      	ldr	r3, [r7, #8]
  4037bc:	6553      	str	r3, [r2, #84]	; 0x54
    }

    /* Set default value */
    if (defaultValue) {
  4037be:	79fb      	ldrb	r3, [r7, #7]
  4037c0:	2b00      	cmp	r3, #0
  4037c2:	d003      	beq.n	4037cc <PIO_SetOutput+0x50>

        pio->PIO_SODR = mask;
  4037c4:	68fa      	ldr	r2, [r7, #12]
  4037c6:	68bb      	ldr	r3, [r7, #8]
  4037c8:	6313      	str	r3, [r2, #48]	; 0x30
  4037ca:	e002      	b.n	4037d2 <PIO_SetOutput+0x56>
    }
    else {

        pio->PIO_CODR = mask;
  4037cc:	68fa      	ldr	r2, [r7, #12]
  4037ce:	68bb      	ldr	r3, [r7, #8]
  4037d0:	6353      	str	r3, [r2, #52]	; 0x34
    }

    /* Configure pin(s) as output(s) */
    pio->PIO_OER = mask;
  4037d2:	68fa      	ldr	r2, [r7, #12]
  4037d4:	68bb      	ldr	r3, [r7, #8]
  4037d6:	6113      	str	r3, [r2, #16]
    pio->PIO_PER = mask;
  4037d8:	68fa      	ldr	r2, [r7, #12]
  4037da:	68bb      	ldr	r3, [r7, #8]
  4037dc:	6013      	str	r3, [r2, #0]
}
  4037de:	f107 0714 	add.w	r7, r7, #20
  4037e2:	46bd      	mov	sp, r7
  4037e4:	bc80      	pop	{r7}
  4037e6:	4770      	bx	lr

004037e8 <PIO_Configure>:
 * \param size  Size of the Pin list (calculated using PIO_LISTSIZE).
 *
 * \return 1 if the pins have been configured properly; otherwise 0.
 */
uint8_t PIO_Configure( const Pin *list, uint32_t size )
{
  4037e8:	b5b0      	push	{r4, r5, r7, lr}
  4037ea:	b086      	sub	sp, #24
  4037ec:	af02      	add	r7, sp, #8
  4037ee:	60f8      	str	r0, [r7, #12]
  4037f0:	60b9      	str	r1, [r7, #8]
  4037f2:	e097      	b.n	403924 <PIO_Configure+0x13c>
    /* Configure pins */
    while ( size > 0 )
    {
        switch ( list->type )
  4037f4:	68fb      	ldr	r3, [r7, #12]
  4037f6:	7a5b      	ldrb	r3, [r3, #9]
  4037f8:	2b06      	cmp	r3, #6
  4037fa:	f200 8087 	bhi.w	40390c <PIO_Configure+0x124>
  4037fe:	a201      	add	r2, pc, #4	; (adr r2, 403804 <PIO_Configure+0x1c>)
  403800:	f852 f023 	ldr.w	pc, [r2, r3, lsl #2]
  403804:	00403821 	.word	0x00403821
  403808:	00403841 	.word	0x00403841
  40380c:	00403861 	.word	0x00403861
  403810:	00403881 	.word	0x00403881
  403814:	004038a1 	.word	0x004038a1
  403818:	004038cd 	.word	0x004038cd
  40381c:	004038cd 	.word	0x004038cd
        {

            case PIO_PERIPH_A:
                PIO_SetPeripheralA(list->pio,
  403820:	68fb      	ldr	r3, [r7, #12]
  403822:	685a      	ldr	r2, [r3, #4]
  403824:	68fb      	ldr	r3, [r7, #12]
  403826:	6819      	ldr	r1, [r3, #0]
  403828:	68fb      	ldr	r3, [r7, #12]
  40382a:	7a9b      	ldrb	r3, [r3, #10]
  40382c:	f003 0301 	and.w	r3, r3, #1
  403830:	4610      	mov	r0, r2
  403832:	461a      	mov	r2, r3
  403834:	f243 5359 	movw	r3, #13657	; 0x3559
  403838:	f2c0 0340 	movt	r3, #64	; 0x40
  40383c:	4798      	blx	r3
  40383e:	e069      	b.n	403914 <PIO_Configure+0x12c>
                                   list->mask,
                                   (list->attribute & PIO_PULLUP) ? 1 : 0);
            break;

            case PIO_PERIPH_B:
                PIO_SetPeripheralB(list->pio,
  403840:	68fb      	ldr	r3, [r7, #12]
  403842:	685a      	ldr	r2, [r3, #4]
  403844:	68fb      	ldr	r3, [r7, #12]
  403846:	6819      	ldr	r1, [r3, #0]
  403848:	68fb      	ldr	r3, [r7, #12]
  40384a:	7a9b      	ldrb	r3, [r3, #10]
  40384c:	f003 0301 	and.w	r3, r3, #1
  403850:	4610      	mov	r0, r2
  403852:	461a      	mov	r2, r3
  403854:	f243 53cd 	movw	r3, #13773	; 0x35cd
  403858:	f2c0 0340 	movt	r3, #64	; 0x40
  40385c:	4798      	blx	r3
  40385e:	e059      	b.n	403914 <PIO_Configure+0x12c>
                                   list->mask,
                                   (list->attribute & PIO_PULLUP) ? 1 : 0);
            break;

            case PIO_PERIPH_C:
                PIO_SetPeripheralC(list->pio,
  403860:	68fb      	ldr	r3, [r7, #12]
  403862:	685a      	ldr	r2, [r3, #4]
  403864:	68fb      	ldr	r3, [r7, #12]
  403866:	6819      	ldr	r1, [r3, #0]
  403868:	68fb      	ldr	r3, [r7, #12]
  40386a:	7a9b      	ldrb	r3, [r3, #10]
  40386c:	f003 0301 	and.w	r3, r3, #1
  403870:	4610      	mov	r0, r2
  403872:	461a      	mov	r2, r3
  403874:	f243 6335 	movw	r3, #13877	; 0x3635
  403878:	f2c0 0340 	movt	r3, #64	; 0x40
  40387c:	4798      	blx	r3
  40387e:	e049      	b.n	403914 <PIO_Configure+0x12c>
                                   list->mask,
                                   (list->attribute & PIO_PULLUP) ? 1 : 0);
            break;

            case PIO_PERIPH_D:
                PIO_SetPeripheralD(list->pio,
  403880:	68fb      	ldr	r3, [r7, #12]
  403882:	685a      	ldr	r2, [r3, #4]
  403884:	68fb      	ldr	r3, [r7, #12]
  403886:	6819      	ldr	r1, [r3, #0]
  403888:	68fb      	ldr	r3, [r7, #12]
  40388a:	7a9b      	ldrb	r3, [r3, #10]
  40388c:	f003 0301 	and.w	r3, r3, #1
  403890:	4610      	mov	r0, r2
  403892:	461a      	mov	r2, r3
  403894:	f243 639d 	movw	r3, #13981	; 0x369d
  403898:	f2c0 0340 	movt	r3, #64	; 0x40
  40389c:	4798      	blx	r3
  40389e:	e039      	b.n	403914 <PIO_Configure+0x12c>
                                   list->mask,
                                   (list->attribute & PIO_PULLUP) ? 1 : 0);
            break;
            case PIO_INPUT:
                PMC_EnablePeripheral(list->id);
  4038a0:	68fb      	ldr	r3, [r7, #12]
  4038a2:	7a1b      	ldrb	r3, [r3, #8]
  4038a4:	4618      	mov	r0, r3
  4038a6:	f643 13b1 	movw	r3, #14769	; 0x39b1
  4038aa:	f2c0 0340 	movt	r3, #64	; 0x40
  4038ae:	4798      	blx	r3
                PIO_SetInput(list->pio,
  4038b0:	68fb      	ldr	r3, [r7, #12]
  4038b2:	685a      	ldr	r2, [r3, #4]
  4038b4:	68fb      	ldr	r3, [r7, #12]
  4038b6:	6819      	ldr	r1, [r3, #0]
  4038b8:	68fb      	ldr	r3, [r7, #12]
  4038ba:	7a9b      	ldrb	r3, [r3, #10]
  4038bc:	4610      	mov	r0, r2
  4038be:	461a      	mov	r2, r3
  4038c0:	f243 63f9 	movw	r3, #14073	; 0x36f9
  4038c4:	f2c0 0340 	movt	r3, #64	; 0x40
  4038c8:	4798      	blx	r3
  4038ca:	e023      	b.n	403914 <PIO_Configure+0x12c>
                             list->attribute);
                break;

            case PIO_OUTPUT_0:
            case PIO_OUTPUT_1:
                PIO_SetOutput(list->pio,
  4038cc:	68fb      	ldr	r3, [r7, #12]
  4038ce:	685a      	ldr	r2, [r3, #4]
  4038d0:	68fb      	ldr	r3, [r7, #12]
  4038d2:	6819      	ldr	r1, [r3, #0]
  4038d4:	68fb      	ldr	r3, [r7, #12]
  4038d6:	7a5b      	ldrb	r3, [r3, #9]
  4038d8:	2b06      	cmp	r3, #6
  4038da:	bf14      	ite	ne
  4038dc:	2500      	movne	r5, #0
  4038de:	2501      	moveq	r5, #1
  4038e0:	68fb      	ldr	r3, [r7, #12]
  4038e2:	7a9b      	ldrb	r3, [r3, #10]
  4038e4:	f003 0304 	and.w	r3, r3, #4
  4038e8:	2b00      	cmp	r3, #0
  4038ea:	bf0c      	ite	eq
  4038ec:	2400      	moveq	r4, #0
  4038ee:	2401      	movne	r4, #1
  4038f0:	68fb      	ldr	r3, [r7, #12]
  4038f2:	7a9b      	ldrb	r3, [r3, #10]
  4038f4:	f003 0301 	and.w	r3, r3, #1
  4038f8:	9300      	str	r3, [sp, #0]
  4038fa:	4610      	mov	r0, r2
  4038fc:	462a      	mov	r2, r5
  4038fe:	4623      	mov	r3, r4
  403900:	f243 747d 	movw	r4, #14205	; 0x377d
  403904:	f2c0 0440 	movt	r4, #64	; 0x40
  403908:	47a0      	blx	r4
  40390a:	e003      	b.n	403914 <PIO_Configure+0x12c>
                              (list->type == PIO_OUTPUT_1),
                              (list->attribute & PIO_OPENDRAIN) ? 1 : 0,
                              (list->attribute & PIO_PULLUP) ? 1 : 0);
                break;

            default: return 0;
  40390c:	f04f 0300 	mov.w	r3, #0
  403910:	607b      	str	r3, [r7, #4]
  403912:	e00e      	b.n	403932 <PIO_Configure+0x14a>
        }

        list++;
  403914:	68fb      	ldr	r3, [r7, #12]
  403916:	f103 030c 	add.w	r3, r3, #12
  40391a:	60fb      	str	r3, [r7, #12]
        size--;
  40391c:	68bb      	ldr	r3, [r7, #8]
  40391e:	f103 33ff 	add.w	r3, r3, #4294967295
  403922:	60bb      	str	r3, [r7, #8]
 * \return 1 if the pins have been configured properly; otherwise 0.
 */
uint8_t PIO_Configure( const Pin *list, uint32_t size )
{
    /* Configure pins */
    while ( size > 0 )
  403924:	68bb      	ldr	r3, [r7, #8]
  403926:	2b00      	cmp	r3, #0
  403928:	f47f af64 	bne.w	4037f4 <PIO_Configure+0xc>

        list++;
        size--;
    }

    return 1;
  40392c:	f04f 0201 	mov.w	r2, #1
  403930:	607a      	str	r2, [r7, #4]
  403932:	687b      	ldr	r3, [r7, #4]
}
  403934:	4618      	mov	r0, r3
  403936:	f107 0710 	add.w	r7, r7, #16
  40393a:	46bd      	mov	sp, r7
  40393c:	bdb0      	pop	{r4, r5, r7, pc}
  40393e:	bf00      	nop

00403940 <PIO_Set>:
 * controller will memorize the value they are changed to outputs.
 *
 * \param pin  Pointer to a Pin instance describing one or more pins.
 */
void PIO_Set(const Pin *pin)
{
  403940:	b480      	push	{r7}
  403942:	b083      	sub	sp, #12
  403944:	af00      	add	r7, sp, #0
  403946:	6078      	str	r0, [r7, #4]
    pin->pio->PIO_SODR = pin->mask;
  403948:	687b      	ldr	r3, [r7, #4]
  40394a:	685a      	ldr	r2, [r3, #4]
  40394c:	687b      	ldr	r3, [r7, #4]
  40394e:	681b      	ldr	r3, [r3, #0]
  403950:	6313      	str	r3, [r2, #48]	; 0x30
}
  403952:	f107 070c 	add.w	r7, r7, #12
  403956:	46bd      	mov	sp, r7
  403958:	bc80      	pop	{r7}
  40395a:	4770      	bx	lr

0040395c <PIO_Clear>:
 * controller will memorize the value they are changed to outputs.
 *
 * \param pin  Pointer to a Pin instance describing one or more pins.
 */
void PIO_Clear(const Pin *pin)
{
  40395c:	b480      	push	{r7}
  40395e:	b083      	sub	sp, #12
  403960:	af00      	add	r7, sp, #0
  403962:	6078      	str	r0, [r7, #4]
    pin->pio->PIO_CODR = pin->mask;
  403964:	687b      	ldr	r3, [r7, #4]
  403966:	685a      	ldr	r2, [r3, #4]
  403968:	687b      	ldr	r3, [r7, #4]
  40396a:	681b      	ldr	r3, [r3, #0]
  40396c:	6353      	str	r3, [r2, #52]	; 0x34
}
  40396e:	f107 070c 	add.w	r7, r7, #12
  403972:	46bd      	mov	sp, r7
  403974:	bc80      	pop	{r7}
  403976:	4770      	bx	lr

00403978 <PIO_GetOutputDataStatus>:
 *
 * \return 1 if the Pin instance contains at least one PIO that is configured
 * to output a high level; otherwise 0.
 */
unsigned char PIO_GetOutputDataStatus(const Pin *pin)
{
  403978:	b480      	push	{r7}
  40397a:	b083      	sub	sp, #12
  40397c:	af00      	add	r7, sp, #0
  40397e:	6078      	str	r0, [r7, #4]
    if ((pin->pio->PIO_ODSR & pin->mask) == 0) {
  403980:	687b      	ldr	r3, [r7, #4]
  403982:	685b      	ldr	r3, [r3, #4]
  403984:	6b9a      	ldr	r2, [r3, #56]	; 0x38
  403986:	687b      	ldr	r3, [r7, #4]
  403988:	681b      	ldr	r3, [r3, #0]
  40398a:	ea02 0303 	and.w	r3, r2, r3
  40398e:	2b00      	cmp	r3, #0
  403990:	d103      	bne.n	40399a <PIO_GetOutputDataStatus+0x22>

        return 0;
  403992:	f04f 0300 	mov.w	r3, #0
  403996:	603b      	str	r3, [r7, #0]
  403998:	e002      	b.n	4039a0 <PIO_GetOutputDataStatus+0x28>
    }
    else {

        return 1;
  40399a:	f04f 0301 	mov.w	r3, #1
  40399e:	603b      	str	r3, [r7, #0]
  4039a0:	683b      	ldr	r3, [r7, #0]
    }
}
  4039a2:	4618      	mov	r0, r3
  4039a4:	f107 070c 	add.w	r7, r7, #12
  4039a8:	46bd      	mov	sp, r7
  4039aa:	bc80      	pop	{r7}
  4039ac:	4770      	bx	lr
  4039ae:	bf00      	nop

004039b0 <PMC_EnablePeripheral>:
 * \note The ID must NOT be shifted (i.e. 1 << ID_xxx).
 *
 * \param id  Peripheral ID (ID_xxx).
 */
extern void PMC_EnablePeripheral( uint32_t dwId )
{
  4039b0:	b590      	push	{r4, r7, lr}
  4039b2:	b083      	sub	sp, #12
  4039b4:	af00      	add	r7, sp, #0
  4039b6:	6078      	str	r0, [r7, #4]
    assert( dwId < 35 ) ;
  4039b8:	687b      	ldr	r3, [r7, #4]
  4039ba:	2b22      	cmp	r3, #34	; 0x22
  4039bc:	d912      	bls.n	4039e4 <PMC_EnablePeripheral+0x34>
  4039be:	f247 4030 	movw	r0, #29744	; 0x7430
  4039c2:	f2c0 0040 	movt	r0, #64	; 0x40
  4039c6:	f247 413c 	movw	r1, #29756	; 0x743c
  4039ca:	f2c0 0140 	movt	r1, #64	; 0x40
  4039ce:	f04f 023b 	mov.w	r2, #59	; 0x3b
  4039d2:	f247 4318 	movw	r3, #29720	; 0x7418
  4039d6:	f2c0 0340 	movt	r3, #64	; 0x40
  4039da:	f240 0400 	movw	r4, #0
  4039de:	f2c0 0400 	movt	r4, #0
  4039e2:	47a0      	blx	r4

    if ( dwId < 32 )
  4039e4:	687b      	ldr	r3, [r7, #4]
  4039e6:	2b1f      	cmp	r3, #31
  4039e8:	d81d      	bhi.n	403a26 <PMC_EnablePeripheral+0x76>
    {
        if ( (PMC->PMC_PCSR0 & ((uint32_t)1 << dwId)) == ((uint32_t)1 << dwId) )
  4039ea:	f240 4300 	movw	r3, #1024	; 0x400
  4039ee:	f2c4 030e 	movt	r3, #16398	; 0x400e
  4039f2:	6999      	ldr	r1, [r3, #24]
  4039f4:	687a      	ldr	r2, [r7, #4]
  4039f6:	f04f 0301 	mov.w	r3, #1
  4039fa:	fa03 f302 	lsl.w	r3, r3, r2
  4039fe:	ea01 0103 	and.w	r1, r1, r3
  403a02:	687a      	ldr	r2, [r7, #4]
  403a04:	f04f 0301 	mov.w	r3, #1
  403a08:	fa03 f302 	lsl.w	r3, r3, r2
  403a0c:	4299      	cmp	r1, r3
  403a0e:	d02d      	beq.n	403a6c <PMC_EnablePeripheral+0xbc>
        {
            TRACE_DEBUG( "PMC_EnablePeripheral: clock of peripheral"  " %u is already enabled\n\r", dwId ) ;
        }
        else
        {
            PMC->PMC_PCER0 = 1 << dwId ;
  403a10:	f240 4200 	movw	r2, #1024	; 0x400
  403a14:	f2c4 020e 	movt	r2, #16398	; 0x400e
  403a18:	6879      	ldr	r1, [r7, #4]
  403a1a:	f04f 0301 	mov.w	r3, #1
  403a1e:	fa03 f301 	lsl.w	r3, r3, r1
  403a22:	6113      	str	r3, [r2, #16]
  403a24:	e022      	b.n	403a6c <PMC_EnablePeripheral+0xbc>
        }
    }
    else
    {
        dwId -= 32;
  403a26:	687b      	ldr	r3, [r7, #4]
  403a28:	f1a3 0320 	sub.w	r3, r3, #32
  403a2c:	607b      	str	r3, [r7, #4]
        if ((PMC->PMC_PCSR1 & ((uint32_t)1 << dwId)) == ((uint32_t)1 << dwId))
  403a2e:	f240 4300 	movw	r3, #1024	; 0x400
  403a32:	f2c4 030e 	movt	r3, #16398	; 0x400e
  403a36:	f8d3 1108 	ldr.w	r1, [r3, #264]	; 0x108
  403a3a:	687a      	ldr	r2, [r7, #4]
  403a3c:	f04f 0301 	mov.w	r3, #1
  403a40:	fa03 f302 	lsl.w	r3, r3, r2
  403a44:	ea01 0103 	and.w	r1, r1, r3
  403a48:	687a      	ldr	r2, [r7, #4]
  403a4a:	f04f 0301 	mov.w	r3, #1
  403a4e:	fa03 f302 	lsl.w	r3, r3, r2
  403a52:	4299      	cmp	r1, r3
  403a54:	d00a      	beq.n	403a6c <PMC_EnablePeripheral+0xbc>
        {
            TRACE_DEBUG( "PMC_EnablePeripheral: clock of peripheral"  " %u is already enabled\n\r", dwId + 32 ) ;
        }
        else
        {
            PMC->PMC_PCER1 = 1 << dwId ;
  403a56:	f240 4200 	movw	r2, #1024	; 0x400
  403a5a:	f2c4 020e 	movt	r2, #16398	; 0x400e
  403a5e:	6879      	ldr	r1, [r7, #4]
  403a60:	f04f 0301 	mov.w	r3, #1
  403a64:	fa03 f301 	lsl.w	r3, r3, r1
  403a68:	f8c2 3100 	str.w	r3, [r2, #256]	; 0x100
        }
    }
}
  403a6c:	f107 070c 	add.w	r7, r7, #12
  403a70:	46bd      	mov	sp, r7
  403a72:	bd90      	pop	{r4, r7, pc}

00403a74 <TC_Configure>:
 * \param pTc  Pointer to a Tc instance.
 * \param channel Channel number.
 * \param mode  Operating mode (TC_CMR value).
 */
extern void TC_Configure( Tc *pTc, uint32_t dwChannel, uint32_t dwMode )
{
  403a74:	b590      	push	{r4, r7, lr}
  403a76:	b087      	sub	sp, #28
  403a78:	af00      	add	r7, sp, #0
  403a7a:	60f8      	str	r0, [r7, #12]
  403a7c:	60b9      	str	r1, [r7, #8]
  403a7e:	607a      	str	r2, [r7, #4]
    TcChannel* pTcCh ;

    assert( dwChannel < (sizeof( pTc->TC_CHANNEL )/sizeof( pTc->TC_CHANNEL[0] )) ) ;
  403a80:	68bb      	ldr	r3, [r7, #8]
  403a82:	2b02      	cmp	r3, #2
  403a84:	d912      	bls.n	403aac <TC_Configure+0x38>
  403a86:	f247 408c 	movw	r0, #29836	; 0x748c
  403a8a:	f2c0 0040 	movt	r0, #64	; 0x40
  403a8e:	f247 41d4 	movw	r1, #29908	; 0x74d4
  403a92:	f2c0 0140 	movt	r1, #64	; 0x40
  403a96:	f04f 0240 	mov.w	r2, #64	; 0x40
  403a9a:	f247 437c 	movw	r3, #29820	; 0x747c
  403a9e:	f2c0 0340 	movt	r3, #64	; 0x40
  403aa2:	f240 0400 	movw	r4, #0
  403aa6:	f2c0 0400 	movt	r4, #0
  403aaa:	47a0      	blx	r4
    pTcCh = pTc->TC_CHANNEL+dwChannel ;
  403aac:	68fa      	ldr	r2, [r7, #12]
  403aae:	68bb      	ldr	r3, [r7, #8]
  403ab0:	ea4f 1383 	mov.w	r3, r3, lsl #6
  403ab4:	4413      	add	r3, r2
  403ab6:	617b      	str	r3, [r7, #20]

    /*  Disable TC clock */
    pTcCh->TC_CCR = TC_CCR_CLKDIS ;
  403ab8:	697a      	ldr	r2, [r7, #20]
  403aba:	f04f 0302 	mov.w	r3, #2
  403abe:	6013      	str	r3, [r2, #0]

    /*  Disable interrupts */
    pTcCh->TC_IDR = 0xFFFFFFFF ;
  403ac0:	697a      	ldr	r2, [r7, #20]
  403ac2:	f04f 33ff 	mov.w	r3, #4294967295
  403ac6:	6293      	str	r3, [r2, #40]	; 0x28

    /*  Clear status register */
    pTcCh->TC_SR ;
  403ac8:	697b      	ldr	r3, [r7, #20]
  403aca:	6a1b      	ldr	r3, [r3, #32]

    /*  Set mode */
    pTcCh->TC_CMR = dwMode ;
  403acc:	697a      	ldr	r2, [r7, #20]
  403ace:	687b      	ldr	r3, [r7, #4]
  403ad0:	6053      	str	r3, [r2, #4]
}
  403ad2:	f107 071c 	add.w	r7, r7, #28
  403ad6:	46bd      	mov	sp, r7
  403ad8:	bd90      	pop	{r4, r7, pc}
  403ada:	bf00      	nop

00403adc <TC_Start>:
 *
 * \param pTc  Pointer to a Tc instance.
 * \param dwChannel Channel number.
 */
extern void TC_Start( Tc *pTc, uint32_t dwChannel )
{
  403adc:	b590      	push	{r4, r7, lr}
  403ade:	b085      	sub	sp, #20
  403ae0:	af00      	add	r7, sp, #0
  403ae2:	6078      	str	r0, [r7, #4]
  403ae4:	6039      	str	r1, [r7, #0]
    TcChannel* pTcCh ;

    assert( dwChannel < (sizeof( pTc->TC_CHANNEL )/sizeof( pTc->TC_CHANNEL[0] )) ) ;
  403ae6:	683b      	ldr	r3, [r7, #0]
  403ae8:	2b02      	cmp	r3, #2
  403aea:	d912      	bls.n	403b12 <TC_Start+0x36>
  403aec:	f247 408c 	movw	r0, #29836	; 0x748c
  403af0:	f2c0 0040 	movt	r0, #64	; 0x40
  403af4:	f247 41d4 	movw	r1, #29908	; 0x74d4
  403af8:	f2c0 0140 	movt	r1, #64	; 0x40
  403afc:	f04f 025c 	mov.w	r2, #92	; 0x5c
  403b00:	f247 43e8 	movw	r3, #29928	; 0x74e8
  403b04:	f2c0 0340 	movt	r3, #64	; 0x40
  403b08:	f240 0400 	movw	r4, #0
  403b0c:	f2c0 0400 	movt	r4, #0
  403b10:	47a0      	blx	r4

    pTcCh = pTc->TC_CHANNEL+dwChannel ;
  403b12:	687a      	ldr	r2, [r7, #4]
  403b14:	683b      	ldr	r3, [r7, #0]
  403b16:	ea4f 1383 	mov.w	r3, r3, lsl #6
  403b1a:	4413      	add	r3, r2
  403b1c:	60fb      	str	r3, [r7, #12]
    pTcCh->TC_CCR = TC_CCR_CLKEN | TC_CCR_SWTRG ;
  403b1e:	68fa      	ldr	r2, [r7, #12]
  403b20:	f04f 0305 	mov.w	r3, #5
  403b24:	6013      	str	r3, [r2, #0]
}
  403b26:	f107 0714 	add.w	r7, r7, #20
  403b2a:	46bd      	mov	sp, r7
  403b2c:	bd90      	pop	{r4, r7, pc}
  403b2e:	bf00      	nop

00403b30 <TC_FindMckDivisor>:
 * \param dwBoardMCK  Board clock frequency.
 *
 * \return 1 if a proper divisor has been found, otherwise 0.
 */
extern uint32_t TC_FindMckDivisor( uint32_t dwFreq, uint32_t dwMCk, uint32_t *dwDiv, uint32_t *dwTcClks, uint32_t dwBoardMCK )
{
  403b30:	b480      	push	{r7}
  403b32:	b08d      	sub	sp, #52	; 0x34
  403b34:	af00      	add	r7, sp, #0
  403b36:	6178      	str	r0, [r7, #20]
  403b38:	6139      	str	r1, [r7, #16]
  403b3a:	60fa      	str	r2, [r7, #12]
  403b3c:	60bb      	str	r3, [r7, #8]
    const uint32_t adwDivisors[5] = { 2, 8, 32, 128, dwBoardMCK / 32768 } ;
  403b3e:	6bbb      	ldr	r3, [r7, #56]	; 0x38
  403b40:	ea4f 32d3 	mov.w	r2, r3, lsr #15
  403b44:	f04f 0302 	mov.w	r3, #2
  403b48:	61bb      	str	r3, [r7, #24]
  403b4a:	f04f 0308 	mov.w	r3, #8
  403b4e:	61fb      	str	r3, [r7, #28]
  403b50:	f04f 0320 	mov.w	r3, #32
  403b54:	623b      	str	r3, [r7, #32]
  403b56:	f04f 0380 	mov.w	r3, #128	; 0x80
  403b5a:	627b      	str	r3, [r7, #36]	; 0x24
  403b5c:	62ba      	str	r2, [r7, #40]	; 0x28

    uint32_t dwIndex = 0 ;
  403b5e:	f04f 0300 	mov.w	r3, #0
  403b62:	62fb      	str	r3, [r7, #44]	; 0x2c
  403b64:	e00a      	b.n	403b7c <TC_FindMckDivisor+0x4c>

    /*  Satisfy lower bound */
    while ( dwFreq < ((dwMCk / adwDivisors[dwIndex]) / 65536) )
    {
        dwIndex++ ;
  403b66:	6afb      	ldr	r3, [r7, #44]	; 0x2c
  403b68:	f103 0301 	add.w	r3, r3, #1
  403b6c:	62fb      	str	r3, [r7, #44]	; 0x2c

        /*  If no divisor can be found, return 0 */
        if ( dwIndex == (sizeof( adwDivisors )/sizeof( adwDivisors[0] ))  )
  403b6e:	6afb      	ldr	r3, [r7, #44]	; 0x2c
  403b70:	2b05      	cmp	r3, #5
  403b72:	d103      	bne.n	403b7c <TC_FindMckDivisor+0x4c>
        {
            return 0 ;
  403b74:	f04f 0200 	mov.w	r2, #0
  403b78:	607a      	str	r2, [r7, #4]
  403b7a:	e03d      	b.n	403bf8 <TC_FindMckDivisor+0xc8>
    const uint32_t adwDivisors[5] = { 2, 8, 32, 128, dwBoardMCK / 32768 } ;

    uint32_t dwIndex = 0 ;

    /*  Satisfy lower bound */
    while ( dwFreq < ((dwMCk / adwDivisors[dwIndex]) / 65536) )
  403b7c:	6afb      	ldr	r3, [r7, #44]	; 0x2c
  403b7e:	ea4f 0383 	mov.w	r3, r3, lsl #2
  403b82:	f107 0230 	add.w	r2, r7, #48	; 0x30
  403b86:	4413      	add	r3, r2
  403b88:	f853 2c18 	ldr.w	r2, [r3, #-24]
  403b8c:	693b      	ldr	r3, [r7, #16]
  403b8e:	fbb3 f3f2 	udiv	r3, r3, r2
  403b92:	ea4f 4213 	mov.w	r2, r3, lsr #16
  403b96:	697b      	ldr	r3, [r7, #20]
  403b98:	429a      	cmp	r2, r3
  403b9a:	d8e4      	bhi.n	403b66 <TC_FindMckDivisor+0x36>
  403b9c:	e013      	b.n	403bc6 <TC_FindMckDivisor+0x96>

    /*  Try to maximize DIV while satisfying upper bound */
    while ( dwIndex < 4 )
    {

        if ( dwFreq > (dwMCk / adwDivisors[dwIndex + 1]) )
  403b9e:	6afb      	ldr	r3, [r7, #44]	; 0x2c
  403ba0:	f103 0301 	add.w	r3, r3, #1
  403ba4:	ea4f 0383 	mov.w	r3, r3, lsl #2
  403ba8:	f107 0230 	add.w	r2, r7, #48	; 0x30
